
helloworld:     file format binary


Disassembly of section .data:

00000000 <.data>:
       0:	457f      	cmp	r7, pc
       2:	464c      	mov	r4, r9
       4:	0101      	lsls	r1, r0, #4
       6:	0001      	movs	r1, r0
	...
      10:	0003      	movs	r3, r0
      12:	0028      	movs	r0, r5
      14:	0001      	movs	r1, r0
      16:	0000      	movs	r0, r0
      18:	03d1      	lsls	r1, r2, #15
      1a:	0000      	movs	r0, r0
      1c:	0034      	movs	r4, r6
      1e:	0000      	movs	r0, r0
      20:	1b84      	subs	r4, r0, r6
      22:	0000      	movs	r0, r0
      24:	0400      	lsls	r0, r0, #16
      26:	0500      	lsls	r0, r0, #20
      28:	0034      	movs	r4, r6
      2a:	0020      	movs	r0, r4
      2c:	0009      	movs	r1, r1
      2e:	0028      	movs	r0, r5
      30:	001d      	movs	r5, r3
      32:	001c      	movs	r4, r3
      34:	0001      	movs	r1, r0
      36:	7000      	strb	r0, [r0, #0]
      38:	0684      	lsls	r4, r0, #26
      3a:	0000      	movs	r0, r0
      3c:	0684      	lsls	r4, r0, #26
      3e:	0000      	movs	r0, r0
      40:	0684      	lsls	r4, r0, #26
      42:	0000      	movs	r0, r0
      44:	0008      	movs	r0, r1
      46:	0000      	movs	r0, r0
      48:	0008      	movs	r0, r1
      4a:	0000      	movs	r0, r0
      4c:	0004      	movs	r4, r0
      4e:	0000      	movs	r0, r0
      50:	0004      	movs	r4, r0
      52:	0000      	movs	r0, r0
      54:	0006      	movs	r6, r0
      56:	0000      	movs	r0, r0
      58:	0034      	movs	r4, r6
      5a:	0000      	movs	r0, r0
      5c:	0034      	movs	r4, r6
      5e:	0000      	movs	r0, r0
      60:	0034      	movs	r4, r6
      62:	0000      	movs	r0, r0
      64:	0120      	lsls	r0, r4, #4
      66:	0000      	movs	r0, r0
      68:	0120      	lsls	r0, r4, #4
      6a:	0000      	movs	r0, r0
      6c:	0004      	movs	r4, r0
      6e:	0000      	movs	r0, r0
      70:	0004      	movs	r4, r0
      72:	0000      	movs	r0, r0
      74:	0003      	movs	r3, r0
      76:	0000      	movs	r0, r0
      78:	0154      	lsls	r4, r2, #5
      7a:	0000      	movs	r0, r0
      7c:	0154      	lsls	r4, r2, #5
      7e:	0000      	movs	r0, r0
      80:	0154      	lsls	r4, r2, #5
      82:	0000      	movs	r0, r0
      84:	0019      	movs	r1, r3
      86:	0000      	movs	r0, r0
      88:	0019      	movs	r1, r3
      8a:	0000      	movs	r0, r0
      8c:	0004      	movs	r4, r0
      8e:	0000      	movs	r0, r0
      90:	0001      	movs	r1, r0
      92:	0000      	movs	r0, r0
      94:	0001      	movs	r1, r0
	...
      a2:	0000      	movs	r0, r0
      a4:	0690      	lsls	r0, r2, #26
      a6:	0000      	movs	r0, r0
      a8:	0690      	lsls	r0, r2, #26
      aa:	0000      	movs	r0, r0
      ac:	0005      	movs	r5, r0
      ae:	0000      	movs	r0, r0
      b0:	0000      	movs	r0, r0
      b2:	0001      	movs	r1, r0
      b4:	0001      	movs	r1, r0
      b6:	0000      	movs	r0, r0
      b8:	0f08      	lsrs	r0, r1, #28
      ba:	0000      	movs	r0, r0
      bc:	0f08      	lsrs	r0, r1, #28
      be:	0001      	movs	r1, r0
      c0:	0f08      	lsrs	r0, r1, #28
      c2:	0001      	movs	r1, r0
      c4:	0138      	lsls	r0, r7, #4
      c6:	0000      	movs	r0, r0
      c8:	013c      	lsls	r4, r7, #4
      ca:	0000      	movs	r0, r0
      cc:	0006      	movs	r6, r0
      ce:	0000      	movs	r0, r0
      d0:	0000      	movs	r0, r0
      d2:	0001      	movs	r1, r0
      d4:	0002      	movs	r2, r0
      d6:	0000      	movs	r0, r0
      d8:	0f10      	lsrs	r0, r2, #28
      da:	0000      	movs	r0, r0
      dc:	0f10      	lsrs	r0, r2, #28
      de:	0001      	movs	r1, r0
      e0:	0f10      	lsrs	r0, r2, #28
      e2:	0001      	movs	r1, r0
      e4:	00f0      	lsls	r0, r6, #3
      e6:	0000      	movs	r0, r0
      e8:	00f0      	lsls	r0, r6, #3
      ea:	0000      	movs	r0, r0
      ec:	0006      	movs	r6, r0
      ee:	0000      	movs	r0, r0
      f0:	0004      	movs	r4, r0
      f2:	0000      	movs	r0, r0
      f4:	0004      	movs	r4, r0
      f6:	0000      	movs	r0, r0
      f8:	0170      	lsls	r0, r6, #5
      fa:	0000      	movs	r0, r0
      fc:	0170      	lsls	r0, r6, #5
      fe:	0000      	movs	r0, r0
     100:	0170      	lsls	r0, r6, #5
     102:	0000      	movs	r0, r0
     104:	0044      	lsls	r4, r0, #1
     106:	0000      	movs	r0, r0
     108:	0044      	lsls	r4, r0, #1
     10a:	0000      	movs	r0, r0
     10c:	0004      	movs	r4, r0
     10e:	0000      	movs	r0, r0
     110:	0004      	movs	r4, r0
     112:	0000      	movs	r0, r0
     114:	e551      	b.n	0xfffffbba
     116:	6474      	str	r4, [r6, #68]	; 0x44
	...
     12c:	0006      	movs	r6, r0
     12e:	0000      	movs	r0, r0
     130:	0010      	movs	r0, r2
     132:	0000      	movs	r0, r0
     134:	e552      	b.n	0xfffffbdc
     136:	6474      	str	r4, [r6, #68]	; 0x44
     138:	0f08      	lsrs	r0, r1, #28
     13a:	0000      	movs	r0, r0
     13c:	0f08      	lsrs	r0, r1, #28
     13e:	0001      	movs	r1, r0
     140:	0f08      	lsrs	r0, r1, #28
     142:	0001      	movs	r1, r0
     144:	00f8      	lsls	r0, r7, #3
     146:	0000      	movs	r0, r0
     148:	00f8      	lsls	r0, r7, #3
     14a:	0000      	movs	r0, r0
     14c:	0004      	movs	r4, r0
     14e:	0000      	movs	r0, r0
     150:	0001      	movs	r1, r0
     152:	0000      	movs	r0, r0
     154:	6c2f      	ldr	r7, [r5, #64]	; 0x40
     156:	6269      	str	r1, [r5, #36]	; 0x24
     158:	6c2f      	ldr	r7, [r5, #64]	; 0x40
     15a:	2d64      	cmp	r5, #100	; 0x64
     15c:	696c      	ldr	r4, [r5, #20]
     15e:	756e      	strb	r6, [r5, #21]
     160:	2d78      	cmp	r5, #120	; 0x78
     162:	7261      	strb	r1, [r4, #9]
     164:	686d      	ldr	r5, [r5, #4]
     166:	2e66      	cmp	r6, #102	; 0x66
     168:	6f73      	ldr	r3, [r6, #116]	; 0x74
     16a:	332e      	adds	r3, #46	; 0x2e
     16c:	0000      	movs	r0, r0
     16e:	0000      	movs	r0, r0
     170:	0004      	movs	r4, r0
     172:	0000      	movs	r0, r0
     174:	0014      	movs	r4, r2
     176:	0000      	movs	r0, r0
     178:	0003      	movs	r3, r0
     17a:	0000      	movs	r0, r0
     17c:	4e47      	ldr	r6, [pc, #284]	; (0x29c)
     17e:	0055      	lsls	r5, r2, #1
     180:	e18f      	b.n	0x4a2
     182:	f246 239d 	movw	r3, #25245	; 0x629d
     186:	a6b9      	add	r6, pc, #740	; (adr r6, 0x46c)
     188:	2284      	movs	r2, #132	; 0x84
     18a:	f4a9 7d4b 			; <UNDEFINED> instruction: 0xf4a97d4b
     18e:	8940      	ldrh	r0, [r0, #10]
     190:	a18a      	add	r1, pc, #552	; (adr r1, 0x3bc)
     192:	74cd      	strb	r5, [r1, #19]
     194:	0004      	movs	r4, r0
     196:	0000      	movs	r0, r0
     198:	0010      	movs	r0, r2
     19a:	0000      	movs	r0, r0
     19c:	0001      	movs	r1, r0
     19e:	0000      	movs	r0, r0
     1a0:	4e47      	ldr	r6, [pc, #284]	; (0x2c0)
     1a2:	0055      	lsls	r5, r2, #1
     1a4:	0000      	movs	r0, r0
     1a6:	0000      	movs	r0, r0
     1a8:	0003      	movs	r3, r0
     1aa:	0000      	movs	r0, r0
     1ac:	0002      	movs	r2, r0
     1ae:	0000      	movs	r0, r0
     1b0:	0000      	movs	r0, r0
     1b2:	0000      	movs	r0, r0
     1b4:	0001      	movs	r1, r0
     1b6:	0000      	movs	r0, r0
     1b8:	0001      	movs	r1, r0
     1ba:	0000      	movs	r0, r0
     1bc:	0001      	movs	r1, r0
	...
     1de:	0000      	movs	r0, r0
     1e0:	0380      	lsls	r0, r0, #14
     1e2:	0000      	movs	r0, r0
     1e4:	0000      	movs	r0, r0
     1e6:	0000      	movs	r0, r0
     1e8:	0003      	movs	r3, r0
     1ea:	000b      	movs	r3, r1
     1ec:	0000      	movs	r0, r0
     1ee:	0000      	movs	r0, r0
     1f0:	1038      	asrs	r0, r7, #32
     1f2:	0001      	movs	r1, r0
     1f4:	0000      	movs	r0, r0
     1f6:	0000      	movs	r0, r0
     1f8:	0003      	movs	r3, r0
     1fa:	0016      	movs	r6, r2
     1fc:	0007      	movs	r7, r0
	...
     206:	0000      	movs	r0, r0
     208:	0022      	movs	r2, r4
     20a:	0000      	movs	r0, r0
     20c:	003c      	movs	r4, r7
	...
     216:	0000      	movs	r0, r0
     218:	0020      	movs	r0, r4
     21a:	0000      	movs	r0, r0
     21c:	0016      	movs	r6, r2
	...
     226:	0000      	movs	r0, r0
     228:	0012      	movs	r2, r2
     22a:	0000      	movs	r0, r0
     22c:	0058      	lsls	r0, r3, #1
	...
     236:	0000      	movs	r0, r0
     238:	0020      	movs	r0, r4
     23a:	0000      	movs	r0, r0
     23c:	0067      	lsls	r7, r4, #1
	...
     246:	0000      	movs	r0, r0
     248:	0020      	movs	r0, r4
     24a:	0000      	movs	r0, r0
     24c:	0001      	movs	r1, r0
	...
     256:	0000      	movs	r0, r0
     258:	0012      	movs	r2, r2
     25a:	0000      	movs	r0, r0
     25c:	6100      	str	r0, [r0, #16]
     25e:	6f62      	ldr	r2, [r4, #116]	; 0x74
     260:	7472      	strb	r2, [r6, #17]
     262:	5f00      	ldrsh	r0, [r0, r4]
     264:	635f      	str	r7, [r3, #52]	; 0x34
     266:	6178      	str	r0, [r7, #20]
     268:	665f      	str	r7, [r3, #100]	; 0x64
     26a:	6e69      	ldr	r1, [r5, #100]	; 0x64
     26c:	6c61      	ldr	r1, [r4, #68]	; 0x44
     26e:	7a69      	ldrb	r1, [r5, #9]
     270:	0065      	lsls	r5, r4, #1
     272:	5f5f      	ldrsh	r7, [r3, r5]
     274:	696c      	ldr	r4, [r5, #20]
     276:	6362      	str	r2, [r4, #52]	; 0x34
     278:	735f      	strb	r7, [r3, #13]
     27a:	6174      	str	r4, [r6, #20]
     27c:	7472      	strb	r2, [r6, #17]
     27e:	6d5f      	ldr	r7, [r3, #84]	; 0x54
     280:	6961      	ldr	r1, [r4, #20]
     282:	006e      	lsls	r6, r5, #1
     284:	696c      	ldr	r4, [r5, #20]
     286:	6362      	str	r2, [r4, #52]	; 0x34
     288:	732e      	strb	r6, [r5, #12]
     28a:	2e6f      	cmp	r6, #111	; 0x6f
     28c:	0036      	movs	r6, r6
     28e:	4c47      	ldr	r4, [pc, #284]	; (0x3ac)
     290:	4249      	negs	r1, r1
     292:	5f43      	ldrsh	r3, [r0, r5]
     294:	2e32      	cmp	r6, #50	; 0x32
     296:	0034      	movs	r4, r6
     298:	495f      	ldr	r1, [pc, #380]	; (0x418)
     29a:	4d54      	ldr	r5, [pc, #336]	; (0x3ec)
     29c:	645f      	str	r7, [r3, #68]	; 0x44
     29e:	7265      	strb	r5, [r4, #9]
     2a0:	6765      	str	r5, [r4, #116]	; 0x74
     2a2:	7369      	strb	r1, [r5, #13]
     2a4:	6574      	str	r4, [r6, #84]	; 0x54
     2a6:	5472      	strb	r2, [r6, r1]
     2a8:	434d      	muls	r5, r1
     2aa:	6f6c      	ldr	r4, [r5, #116]	; 0x74
     2ac:	656e      	str	r6, [r5, #84]	; 0x54
     2ae:	6154      	str	r4, [r2, #20]
     2b0:	6c62      	ldr	r2, [r4, #68]	; 0x44
     2b2:	0065      	lsls	r5, r4, #1
     2b4:	5f5f      	ldrsh	r7, [r3, r5]
     2b6:	6d67      	ldr	r7, [r4, #84]	; 0x54
     2b8:	6e6f      	ldr	r7, [r5, #100]	; 0x64
     2ba:	735f      	strb	r7, [r3, #13]
     2bc:	6174      	str	r4, [r6, #20]
     2be:	7472      	strb	r2, [r6, #17]
     2c0:	5f5f      	ldrsh	r7, [r3, r5]
     2c2:	5f00      	ldrsh	r0, [r0, r4]
     2c4:	5449      	strb	r1, [r1, r1]
     2c6:	5f4d      	ldrsh	r5, [r1, r5]
     2c8:	6572      	str	r2, [r6, #84]	; 0x54
     2ca:	6967      	ldr	r7, [r4, #20]
     2cc:	7473      	strb	r3, [r6, #17]
     2ce:	7265      	strb	r5, [r4, #9]
     2d0:	4d54      	ldr	r5, [pc, #336]	; (0x424)
     2d2:	6c43      	ldr	r3, [r0, #68]	; 0x44
     2d4:	6e6f      	ldr	r7, [r5, #100]	; 0x64
     2d6:	5465      	strb	r5, [r4, r1]
     2d8:	6261      	str	r1, [r4, #36]	; 0x24
     2da:	656c      	str	r4, [r5, #84]	; 0x54
	...
     2e4:	0002      	movs	r2, r0
     2e6:	0000      	movs	r0, r0
     2e8:	0002      	movs	r2, r0
     2ea:	0000      	movs	r0, r0
     2ec:	0000      	movs	r0, r0
     2ee:	0002      	movs	r2, r0
     2f0:	0001      	movs	r1, r0
     2f2:	0001      	movs	r1, r0
     2f4:	0028      	movs	r0, r5
     2f6:	0000      	movs	r0, r0
     2f8:	0010      	movs	r0, r2
     2fa:	0000      	movs	r0, r0
     2fc:	0000      	movs	r0, r0
     2fe:	0000      	movs	r0, r0
     300:	6914      	ldr	r4, [r2, #16]
     302:	0d69      	lsrs	r1, r5, #21
     304:	0000      	movs	r0, r0
     306:	0002      	movs	r2, r0
     308:	0032      	movs	r2, r6
     30a:	0000      	movs	r0, r0
     30c:	0000      	movs	r0, r0
     30e:	0000      	movs	r0, r0
     310:	0f08      	lsrs	r0, r1, #28
     312:	0001      	movs	r1, r0
     314:	0017      	movs	r7, r2
     316:	0000      	movs	r0, r0
     318:	0f0c      	lsrs	r4, r1, #28
     31a:	0001      	movs	r1, r0
     31c:	0017      	movs	r7, r2
     31e:	0000      	movs	r0, r0
     320:	101c      	asrs	r4, r3, #32
     322:	0001      	movs	r1, r0
     324:	0017      	movs	r7, r2
     326:	0000      	movs	r0, r0
     328:	102c      	asrs	r4, r5, #32
     32a:	0001      	movs	r1, r0
     32c:	0017      	movs	r7, r2
     32e:	0000      	movs	r0, r0
     330:	1030      	asrs	r0, r6, #32
     332:	0001      	movs	r1, r0
     334:	0017      	movs	r7, r2
     336:	0000      	movs	r0, r0
     338:	103c      	asrs	r4, r7, #32
     33a:	0001      	movs	r1, r0
     33c:	0017      	movs	r7, r2
     33e:	0000      	movs	r0, r0
     340:	1020      	asrs	r0, r4, #32
     342:	0001      	movs	r1, r0
     344:	0315      	lsls	r5, r2, #12
     346:	0000      	movs	r0, r0
     348:	1024      	asrs	r4, r4, #32
     34a:	0001      	movs	r1, r0
     34c:	0415      	lsls	r5, r2, #16
     34e:	0000      	movs	r0, r0
     350:	1028      	asrs	r0, r5, #32
     352:	0001      	movs	r1, r0
     354:	0615      	lsls	r5, r2, #24
     356:	0000      	movs	r0, r0
     358:	1034      	asrs	r4, r6, #32
     35a:	0001      	movs	r1, r0
     35c:	0715      	lsls	r5, r2, #28
     35e:	0000      	movs	r0, r0
     360:	100c      	asrs	r4, r1, #32
     362:	0001      	movs	r1, r0
     364:	0316      	lsls	r6, r2, #12
     366:	0000      	movs	r0, r0
     368:	1010      	asrs	r0, r2, #32
     36a:	0001      	movs	r1, r0
     36c:	0516      	lsls	r6, r2, #20
     36e:	0000      	movs	r0, r0
     370:	1014      	asrs	r4, r2, #32
     372:	0001      	movs	r1, r0
     374:	0616      	lsls	r6, r2, #24
     376:	0000      	movs	r0, r0
     378:	1018      	asrs	r0, r3, #32
     37a:	0001      	movs	r1, r0
     37c:	0816      	lsrs	r6, r2, #32
     37e:	0000      	movs	r0, r0
     380:	4008      	ands	r0, r1
     382:	e92d 0023 	stmdb	sp!, {r0, r1, r5}
     386:	eb00 8008 			; <UNDEFINED> instruction: 0xeb008008
     38a:	e8bd e004 	ldmia.w	sp!, {r2, sp, lr, pc}
     38e:	e52d      	b.n	0xfffffdec
     390:	e004      	b.n	0x39c
     392:	e59f      	b.n	0xfffffed4
     394:	e00e      	b.n	0x3b4
     396:	e08f      	b.n	0x4b8
     398:	f008 e5be 	blx	0x408f18
     39c:	0c64      	lsrs	r4, r4, #17
     39e:	0001      	movs	r1, r0
     3a0:	c600      	stmia	r6!, {}
     3a2:	e28f      	b.n	0x8c4
     3a4:	ca10      	ldmia	r2!, {r4}
     3a6:	e28c      	b.n	0x8c2
     3a8:	fc64 e5bc 	stc2l	5, cr14, [r4], #-752	; 0xfffffd10
     3ac:	c600      	stmia	r6!, {}
     3ae:	e28f      	b.n	0x8d0
     3b0:	ca10      	ldmia	r2!, {r4}
     3b2:	e28c      	b.n	0x8ce
     3b4:	fc5c e5bc 	mrrc2	5, 11, lr, ip, cr12
     3b8:	c600      	stmia	r6!, {}
     3ba:	e28f      	b.n	0x8dc
     3bc:	ca10      	ldmia	r2!, {r4}
     3be:	e28c      	b.n	0x8da
     3c0:	fc54 e5bc 	mrrc2	5, 11, lr, r4, cr12
     3c4:	c600      	stmia	r6!, {}
     3c6:	e28f      	b.n	0x8e8
     3c8:	ca10      	ldmia	r2!, {r4}
     3ca:	e28c      	b.n	0x8e6
     3cc:	fc4c e5bc 	mcrr2	5, 11, lr, ip, cr12
     3d0:	f04f 0b00 	mov.w	fp, #0
     3d4:	f04f 0e00 	mov.w	lr, #0
     3d8:	bc02      	pop	{r1}
     3da:	466a      	mov	r2, sp
     3dc:	b404      	push	{r2}
     3de:	b401      	push	{r0}
     3e0:	f8df a024 	ldr.w	sl, [pc, #36]	; 0x408
     3e4:	a308      	add	r3, pc, #32	; (adr r3, 0x408)
     3e6:	449a      	add	sl, r3
     3e8:	f8df c020 	ldr.w	ip, [pc, #32]	; 0x40c
     3ec:	f85a c00c 	ldr.w	ip, [sl, ip]
     3f0:	f84d cd04 	str.w	ip, [sp, #-4]!
     3f4:	4b06      	ldr	r3, [pc, #24]	; (0x410)
     3f6:	f85a 3003 	ldr.w	r3, [sl, r3]
     3fa:	4806      	ldr	r0, [pc, #24]	; (0x414)
     3fc:	f85a 0000 	ldr.w	r0, [sl, r0]
     400:	f7ff efd4 	blx	0x3ac
     404:	f7ff efde 	blx	0x3c4
     408:	0bf8      	lsrs	r0, r7, #15
     40a:	0001      	movs	r1, r0
     40c:	001c      	movs	r4, r3
     40e:	0000      	movs	r0, r0
     410:	002c      	movs	r4, r5
     412:	0000      	movs	r0, r0
     414:	0030      	movs	r0, r6
     416:	0000      	movs	r0, r0
     418:	3014      	adds	r0, #20
     41a:	e59f      	b.n	0xffffff5c
     41c:	2014      	movs	r0, #20
     41e:	e59f      	b.n	0xffffff60
     420:	3003      	adds	r0, #3
     422:	e08f      	b.n	0x544
     424:	2002      	movs	r0, #2
     426:	e793      	b.n	0x350
     428:	0000      	movs	r0, r0
     42a:	e352      	b.n	0xad2
     42c:	ff1e 012f 	vrhadd.u16	d0, d14, d31
     430:	ffe0 eaff 			; <UNDEFINED> instruction: 0xffe0eaff
     434:	0bd8      	lsrs	r0, r3, #15
     436:	0001      	movs	r1, r0
     438:	0028      	movs	r0, r5
     43a:	0000      	movs	r0, r0
     43c:	4806      	ldr	r0, [pc, #24]	; (0x458)
     43e:	4b07      	ldr	r3, [pc, #28]	; (0x45c)
     440:	4a07      	ldr	r2, [pc, #28]	; (0x460)
     442:	4478      	add	r0, pc
     444:	447b      	add	r3, pc
     446:	447a      	add	r2, pc
     448:	4283      	cmp	r3, r0
     44a:	d003      	beq.n	0x454
     44c:	4b05      	ldr	r3, [pc, #20]	; (0x464)
     44e:	58d3      	ldr	r3, [r2, r3]
     450:	b103      	cbz	r3, 0x454
     452:	4718      	bx	r3
     454:	4770      	bx	lr
     456:	bf00      	nop
     458:	0bfa      	lsrs	r2, r7, #15
     45a:	0001      	movs	r1, r0
     45c:	0bf8      	lsrs	r0, r7, #15
     45e:	0001      	movs	r1, r0
     460:	0bb6      	lsrs	r6, r6, #14
     462:	0001      	movs	r1, r0
     464:	0024      	movs	r4, r4
     466:	0000      	movs	r0, r0
     468:	4808      	ldr	r0, [pc, #32]	; (0x48c)
     46a:	4909      	ldr	r1, [pc, #36]	; (0x490)
     46c:	4478      	add	r0, pc
     46e:	4a09      	ldr	r2, [pc, #36]	; (0x494)
     470:	4479      	add	r1, pc
     472:	1a09      	subs	r1, r1, r0
     474:	447a      	add	r2, pc
     476:	0fcb      	lsrs	r3, r1, #31
     478:	eb03 01a1 	add.w	r1, r3, r1, asr #2
     47c:	1049      	asrs	r1, r1, #1
     47e:	d003      	beq.n	0x488
     480:	4b05      	ldr	r3, [pc, #20]	; (0x498)
     482:	58d3      	ldr	r3, [r2, r3]
     484:	b103      	cbz	r3, 0x488
     486:	4718      	bx	r3
     488:	4770      	bx	lr
     48a:	bf00      	nop
     48c:	0bd0      	lsrs	r0, r2, #15
     48e:	0001      	movs	r1, r0
     490:	0bcc      	lsrs	r4, r1, #15
     492:	0001      	movs	r1, r0
     494:	0b88      	lsrs	r0, r1, #14
     496:	0001      	movs	r1, r0
     498:	0034      	movs	r4, r6
     49a:	0000      	movs	r0, r0
     49c:	b508      	push	{r3, lr}
     49e:	4b0a      	ldr	r3, [pc, #40]	; (0x4c8)
     4a0:	4a0a      	ldr	r2, [pc, #40]	; (0x4cc)
     4a2:	447b      	add	r3, pc
     4a4:	447a      	add	r2, pc
     4a6:	781b      	ldrb	r3, [r3, #0]
     4a8:	b96b      	cbnz	r3, 0x4c6
     4aa:	4b09      	ldr	r3, [pc, #36]	; (0x4d0)
     4ac:	58d3      	ldr	r3, [r2, r3]
     4ae:	b123      	cbz	r3, 0x4ba
     4b0:	4b08      	ldr	r3, [pc, #32]	; (0x4d4)
     4b2:	447b      	add	r3, pc
     4b4:	6818      	ldr	r0, [r3, #0]
     4b6:	f7ff ef74 	blx	0x3a0
     4ba:	f7ff ffbf 	bl	0x43c
     4be:	4b06      	ldr	r3, [pc, #24]	; (0x4d8)
     4c0:	2201      	movs	r2, #1
     4c2:	447b      	add	r3, pc
     4c4:	701a      	strb	r2, [r3, #0]
     4c6:	bd08      	pop	{r3, pc}
     4c8:	0b9a      	lsrs	r2, r3, #14
     4ca:	0001      	movs	r1, r0
     4cc:	0b58      	lsrs	r0, r3, #13
     4ce:	0001      	movs	r1, r0
     4d0:	0020      	movs	r0, r4
     4d2:	0000      	movs	r0, r0
     4d4:	0b86      	lsrs	r6, r0, #14
     4d6:	0001      	movs	r1, r0
     4d8:	0b7a      	lsrs	r2, r7, #13
     4da:	0001      	movs	r1, r0
     4dc:	e7c4      	b.n	0x468
     4de:	bf00      	nop
     4e0:	b004      	add	sp, #16
     4e2:	e52d      	b.n	0xffffff40
     4e4:	b000      	add	sp, #0
     4e6:	e28d      	b.n	0xa04
     4e8:	d00c      	beq.n	0x504
     4ea:	e24d      	b.n	0x988
     4ec:	3000      	adds	r0, #0
     4ee:	e3a0      	b.n	0xc32
     4f0:	3008      	adds	r0, #8
     4f2:	e50b      	b.n	0xffffff0c
     4f4:	3008      	adds	r0, #8
     4f6:	e51b      	b.n	0xffffff30
     4f8:	3001      	adds	r0, #1
     4fa:	e283      	b.n	0xa04
     4fc:	3008      	adds	r0, #8
     4fe:	e50b      	b.n	0xffffff18
     500:	3008      	adds	r0, #8
     502:	e51b      	b.n	0xffffff3c
     504:	0003      	movs	r3, r0
     506:	e1a0      	b.n	0x84a
     508:	d000      	beq.n	0x50c
     50a:	e28b      	b.n	0xa24
     50c:	b004      	add	sp, #16
     50e:	e49d      	b.n	0xfffffe4c
     510:	ff1e e12f 	vrhadd.u16	d14, d14, d31
     514:	e92d 43f8 	stmdb	sp!, {r3, r4, r5, r6, r7, r8, r9, lr}
     518:	4607      	mov	r7, r0
     51a:	4e0c      	ldr	r6, [pc, #48]	; (0x54c)
     51c:	4d0c      	ldr	r5, [pc, #48]	; (0x550)
     51e:	4688      	mov	r8, r1
     520:	447e      	add	r6, pc
     522:	4691      	mov	r9, r2
     524:	447d      	add	r5, pc
     526:	f7ff ef2c 	blx	0x380
     52a:	1b76      	subs	r6, r6, r5
     52c:	10b6      	asrs	r6, r6, #2
     52e:	d00a      	beq.n	0x546
     530:	3d04      	subs	r5, #4
     532:	2400      	movs	r4, #0
     534:	f855 3f04 	ldr.w	r3, [r5, #4]!
     538:	464a      	mov	r2, r9
     53a:	4641      	mov	r1, r8
     53c:	4638      	mov	r0, r7
     53e:	3401      	adds	r4, #1
     540:	4798      	blx	r3
     542:	42a6      	cmp	r6, r4
     544:	d1f6      	bne.n	0x534
     546:	e8bd 83f8 	ldmia.w	sp!, {r3, r4, r5, r6, r7, r8, r9, pc}
     54a:	bf00      	nop
     54c:	09e8      	lsrs	r0, r5, #7
     54e:	0001      	movs	r1, r0
     550:	09e0      	lsrs	r0, r4, #7
     552:	0001      	movs	r1, r0
     554:	4770      	bx	lr
     556:	bf00      	nop
     558:	4008      	ands	r0, r1
     55a:	e92d 8008 	stmdb	sp!, {r3, pc}
     55e:	e8bd 0001 	ldmia.w	sp!, {r0}
     562:	0002      	movs	r2, r0
     564:	003a      	movs	r2, r7
     566:	0000      	movs	r0, r0
     568:	003d      	movs	r5, r7
     56a:	0000      	movs	r0, r0
     56c:	000a      	movs	r2, r1
     56e:	0000      	movs	r0, r0
     570:	003d      	movs	r5, r7
     572:	0000      	movs	r0, r0
     574:	000f      	movs	r7, r1
     576:	0000      	movs	r0, r0
     578:	003d      	movs	r5, r7
     57a:	0000      	movs	r0, r0
     57c:	0024      	movs	r4, r4
     57e:	0000      	movs	r0, r0
     580:	003d      	movs	r5, r7
     582:	0000      	movs	r0, r0
     584:	0032      	movs	r2, r6
     586:	0000      	movs	r0, r0
     588:	003d      	movs	r5, r7
     58a:	0000      	movs	r0, r0
     58c:	0002      	movs	r2, r0
     58e:	0000      	movs	r0, r0
     590:	003d      	movs	r5, r7
     592:	0000      	movs	r0, r0
     594:	0005      	movs	r5, r0
     596:	0000      	movs	r0, r0
     598:	003d      	movs	r5, r7
     59a:	0000      	movs	r0, r0
     59c:	0013      	movs	r3, r2
     59e:	0000      	movs	r0, r0
     5a0:	003d      	movs	r5, r7
     5a2:	0000      	movs	r0, r0
     5a4:	000d      	movs	r5, r1
     5a6:	0000      	movs	r0, r0
     5a8:	003d      	movs	r5, r7
     5aa:	0000      	movs	r0, r0
     5ac:	000c      	movs	r4, r1
     5ae:	0000      	movs	r0, r0
     5b0:	003d      	movs	r5, r7
     5b2:	0000      	movs	r0, r0
     5b4:	0023      	movs	r3, r4
     5b6:	0000      	movs	r0, r0
     5b8:	003d      	movs	r5, r7
     5ba:	0000      	movs	r0, r0
     5bc:	0011      	movs	r1, r2
     5be:	0000      	movs	r0, r0
     5c0:	003d      	movs	r5, r7
     5c2:	0000      	movs	r0, r0
     5c4:	0026      	movs	r6, r4
     5c6:	0000      	movs	r0, r0
     5c8:	003d      	movs	r5, r7
     5ca:	0000      	movs	r0, r0
     5cc:	0001      	movs	r1, r0
     5ce:	0000      	movs	r0, r0
     5d0:	003d      	movs	r5, r7
     5d2:	0000      	movs	r0, r0
     5d4:	0017      	movs	r7, r2
     5d6:	0000      	movs	r0, r0
     5d8:	003d      	movs	r5, r7
     5da:	0000      	movs	r0, r0
     5dc:	0008      	movs	r0, r1
     5de:	0000      	movs	r0, r0
     5e0:	003d      	movs	r5, r7
     5e2:	0000      	movs	r0, r0
     5e4:	0009      	movs	r1, r1
     5e6:	0000      	movs	r0, r0
     5e8:	003d      	movs	r5, r7
	...
     5f2:	0000      	movs	r0, r0
     5f4:	003a      	movs	r2, r7
     5f6:	0000      	movs	r0, r0
     5f8:	003d      	movs	r5, r7
     5fa:	0000      	movs	r0, r0
     5fc:	000a      	movs	r2, r1
     5fe:	0000      	movs	r0, r0
     600:	003d      	movs	r5, r7
     602:	0000      	movs	r0, r0
     604:	000f      	movs	r7, r1
     606:	0000      	movs	r0, r0
     608:	003d      	movs	r5, r7
     60a:	0000      	movs	r0, r0
     60c:	0024      	movs	r4, r4
     60e:	0000      	movs	r0, r0
     610:	003d      	movs	r5, r7
     612:	0000      	movs	r0, r0
     614:	0032      	movs	r2, r6
     616:	0000      	movs	r0, r0
     618:	003d      	movs	r5, r7
     61a:	0000      	movs	r0, r0
     61c:	0002      	movs	r2, r0
     61e:	0000      	movs	r0, r0
     620:	003d      	movs	r5, r7
     622:	0000      	movs	r0, r0
     624:	0005      	movs	r5, r0
     626:	0000      	movs	r0, r0
     628:	003d      	movs	r5, r7
     62a:	0000      	movs	r0, r0
     62c:	0013      	movs	r3, r2
     62e:	0000      	movs	r0, r0
     630:	003d      	movs	r5, r7
     632:	0000      	movs	r0, r0
     634:	000d      	movs	r5, r1
     636:	0000      	movs	r0, r0
     638:	003d      	movs	r5, r7
     63a:	0000      	movs	r0, r0
     63c:	000c      	movs	r4, r1
     63e:	0000      	movs	r0, r0
     640:	003d      	movs	r5, r7
     642:	0000      	movs	r0, r0
     644:	0023      	movs	r3, r4
     646:	0000      	movs	r0, r0
     648:	003d      	movs	r5, r7
     64a:	0000      	movs	r0, r0
     64c:	0011      	movs	r1, r2
     64e:	0000      	movs	r0, r0
     650:	003d      	movs	r5, r7
     652:	0000      	movs	r0, r0
     654:	0026      	movs	r6, r4
     656:	0000      	movs	r0, r0
     658:	003d      	movs	r5, r7
     65a:	0000      	movs	r0, r0
     65c:	0001      	movs	r1, r0
     65e:	0000      	movs	r0, r0
     660:	003d      	movs	r5, r7
     662:	0000      	movs	r0, r0
     664:	0017      	movs	r7, r2
     666:	0000      	movs	r0, r0
     668:	003d      	movs	r5, r7
     66a:	0000      	movs	r0, r0
     66c:	0008      	movs	r0, r1
     66e:	0000      	movs	r0, r0
     670:	003d      	movs	r5, r7
     672:	0000      	movs	r0, r0
     674:	0009      	movs	r1, r1
     676:	0000      	movs	r0, r0
     678:	003d      	movs	r5, r7
	...
     682:	0000      	movs	r0, r0
     684:	fd4c 7fff 	stc2l	15, cr7, [ip, #-1020]	; 0xfffffc04
     688:	0001      	movs	r1, r0
	...
     f06:	0000      	movs	r0, r0
     f08:	04dd      	lsls	r5, r3, #19
     f0a:	0000      	movs	r0, r0
     f0c:	049d      	lsls	r5, r3, #18
     f0e:	0000      	movs	r0, r0
     f10:	0001      	movs	r1, r0
     f12:	0000      	movs	r0, r0
     f14:	0028      	movs	r0, r5
     f16:	0000      	movs	r0, r0
     f18:	000c      	movs	r4, r1
     f1a:	0000      	movs	r0, r0
     f1c:	0380      	lsls	r0, r0, #14
     f1e:	0000      	movs	r0, r0
     f20:	000d      	movs	r5, r1
     f22:	0000      	movs	r0, r0
     f24:	0558      	lsls	r0, r3, #21
     f26:	0000      	movs	r0, r0
     f28:	0019      	movs	r1, r3
     f2a:	0000      	movs	r0, r0
     f2c:	0f08      	lsrs	r0, r1, #28
     f2e:	0001      	movs	r1, r0
     f30:	001b      	movs	r3, r3
     f32:	0000      	movs	r0, r0
     f34:	0004      	movs	r4, r0
     f36:	0000      	movs	r0, r0
     f38:	001a      	movs	r2, r3
     f3a:	0000      	movs	r0, r0
     f3c:	0f0c      	lsrs	r4, r1, #28
     f3e:	0001      	movs	r1, r0
     f40:	001c      	movs	r4, r3
     f42:	0000      	movs	r0, r0
     f44:	0004      	movs	r4, r0
     f46:	0000      	movs	r0, r0
     f48:	fef5 6fff 	mrc2	15, 7, r6, cr5, cr15, {7}
     f4c:	01b4      	lsls	r4, r6, #6
     f4e:	0000      	movs	r0, r0
     f50:	0005      	movs	r5, r0
     f52:	0000      	movs	r0, r0
     f54:	025c      	lsls	r4, r3, #9
     f56:	0000      	movs	r0, r0
     f58:	0006      	movs	r6, r0
     f5a:	0000      	movs	r0, r0
     f5c:	01cc      	lsls	r4, r1, #7
     f5e:	0000      	movs	r0, r0
     f60:	000a      	movs	r2, r1
     f62:	0000      	movs	r0, r0
     f64:	0081      	lsls	r1, r0, #2
     f66:	0000      	movs	r0, r0
     f68:	000b      	movs	r3, r1
     f6a:	0000      	movs	r0, r0
     f6c:	0010      	movs	r0, r2
     f6e:	0000      	movs	r0, r0
     f70:	0015      	movs	r5, r2
     f72:	0000      	movs	r0, r0
     f74:	0000      	movs	r0, r0
     f76:	0000      	movs	r0, r0
     f78:	0003      	movs	r3, r0
     f7a:	0000      	movs	r0, r0
     f7c:	1000      	asrs	r0, r0, #32
     f7e:	0001      	movs	r1, r0
     f80:	0002      	movs	r2, r0
     f82:	0000      	movs	r0, r0
     f84:	0020      	movs	r0, r4
     f86:	0000      	movs	r0, r0
     f88:	0014      	movs	r4, r2
     f8a:	0000      	movs	r0, r0
     f8c:	0011      	movs	r1, r2
     f8e:	0000      	movs	r0, r0
     f90:	0017      	movs	r7, r2
     f92:	0000      	movs	r0, r0
     f94:	0360      	lsls	r0, r4, #13
     f96:	0000      	movs	r0, r0
     f98:	0011      	movs	r1, r2
     f9a:	0000      	movs	r0, r0
     f9c:	0310      	lsls	r0, r2, #12
     f9e:	0000      	movs	r0, r0
     fa0:	0012      	movs	r2, r2
     fa2:	0000      	movs	r0, r0
     fa4:	0050      	lsls	r0, r2, #1
     fa6:	0000      	movs	r0, r0
     fa8:	0013      	movs	r3, r2
     faa:	0000      	movs	r0, r0
     fac:	0008      	movs	r0, r1
     fae:	0000      	movs	r0, r0
     fb0:	fffb 6fff 			; <UNDEFINED> instruction: 0xfffb6fff
     fb4:	0000      	movs	r0, r0
     fb6:	0800      	lsrs	r0, r0, #32
     fb8:	fffe 6fff 			; <UNDEFINED> instruction: 0xfffe6fff
     fbc:	02f0      	lsls	r0, r6, #11
     fbe:	0000      	movs	r0, r0
     fc0:	ffff 6fff 			; <UNDEFINED> instruction: 0xffff6fff
     fc4:	0001      	movs	r1, r0
     fc6:	0000      	movs	r0, r0
     fc8:	fff0 6fff 			; <UNDEFINED> instruction: 0xfff06fff
     fcc:	02de      	lsls	r6, r3, #11
     fce:	0000      	movs	r0, r0
     fd0:	fffa 6fff 			; <UNDEFINED> instruction: 0xfffa6fff
     fd4:	0006      	movs	r6, r0
	...
     ffe:	0000      	movs	r0, r0
    1000:	0f10      	lsrs	r0, r2, #28
    1002:	0001      	movs	r1, r0
	...
    100c:	038c      	lsls	r4, r1, #14
    100e:	0000      	movs	r0, r0
    1010:	038c      	lsls	r4, r1, #14
    1012:	0000      	movs	r0, r0
    1014:	038c      	lsls	r4, r1, #14
    1016:	0000      	movs	r0, r0
    1018:	038c      	lsls	r4, r1, #14
    101a:	0000      	movs	r0, r0
    101c:	0555      	lsls	r5, r2, #21
	...
    102a:	0000      	movs	r0, r0
    102c:	0515      	lsls	r5, r2, #20
    102e:	0000      	movs	r0, r0
    1030:	04e0      	lsls	r0, r4, #19
	...
    103a:	0000      	movs	r0, r0
    103c:	103c      	asrs	r4, r7, #32
    103e:	0001      	movs	r1, r0
    1040:	4347      	muls	r7, r0
    1042:	3a43      	subs	r2, #67	; 0x43
    1044:	2820      	cmp	r0, #32
    1046:	6544      	str	r4, [r0, #84]	; 0x54
    1048:	6962      	ldr	r2, [r4, #20]
    104a:	6e61      	ldr	r1, [r4, #100]	; 0x64
    104c:	3120      	adds	r1, #32
    104e:	2e30      	cmp	r6, #48	; 0x30
    1050:	2e32      	cmp	r6, #50	; 0x32
    1052:	2d31      	cmp	r5, #49	; 0x31
    1054:	2936      	cmp	r1, #54	; 0x36
    1056:	3120      	adds	r1, #32
    1058:	2e30      	cmp	r6, #48	; 0x30
    105a:	2e32      	cmp	r6, #50	; 0x32
    105c:	2031      	movs	r0, #49	; 0x31
    105e:	3032      	adds	r0, #50	; 0x32
    1060:	3132      	adds	r1, #50	; 0x32
    1062:	3130      	adds	r1, #48	; 0x30
    1064:	3031      	adds	r0, #49	; 0x31
    1066:	4100      	asrs	r0, r0
    1068:	0032      	movs	r2, r6
    106a:	0000      	movs	r0, r0
    106c:	6561      	str	r1, [r4, #84]	; 0x54
    106e:	6261      	str	r1, [r4, #36]	; 0x24
    1070:	0069      	lsls	r1, r5, #1
    1072:	2801      	cmp	r0, #1
    1074:	0000      	movs	r0, r0
    1076:	0500      	lsls	r0, r0, #20
    1078:	2d37      	cmp	r5, #55	; 0x37
    107a:	0041      	lsls	r1, r0, #1
    107c:	0a06      	lsrs	r6, r0, #8
    107e:	4107      	asrs	r7, r0
    1080:	0108      	lsls	r0, r1, #4
    1082:	0209      	lsls	r1, r1, #8
    1084:	040a      	lsls	r2, r1, #16
    1086:	0412      	lsls	r2, r2, #16
    1088:	0113      	lsls	r3, r2, #4
    108a:	0114      	lsls	r4, r2, #4
    108c:	0115      	lsls	r5, r2, #4
    108e:	0317      	lsls	r7, r2, #12
    1090:	0118      	lsls	r0, r3, #4
    1092:	0119      	lsls	r1, r3, #4
    1094:	021a      	lsls	r2, r3, #8
    1096:	011c      	lsls	r4, r3, #4
    1098:	0122      	lsls	r2, r4, #4
	...
    10ae:	0000      	movs	r0, r0
    10b0:	0154      	lsls	r4, r2, #5
    10b2:	0000      	movs	r0, r0
    10b4:	0000      	movs	r0, r0
    10b6:	0000      	movs	r0, r0
    10b8:	0003      	movs	r3, r0
    10ba:	0001      	movs	r1, r0
    10bc:	0000      	movs	r0, r0
    10be:	0000      	movs	r0, r0
    10c0:	0170      	lsls	r0, r6, #5
    10c2:	0000      	movs	r0, r0
    10c4:	0000      	movs	r0, r0
    10c6:	0000      	movs	r0, r0
    10c8:	0003      	movs	r3, r0
    10ca:	0002      	movs	r2, r0
    10cc:	0000      	movs	r0, r0
    10ce:	0000      	movs	r0, r0
    10d0:	0194      	lsls	r4, r2, #6
    10d2:	0000      	movs	r0, r0
    10d4:	0000      	movs	r0, r0
    10d6:	0000      	movs	r0, r0
    10d8:	0003      	movs	r3, r0
    10da:	0003      	movs	r3, r0
    10dc:	0000      	movs	r0, r0
    10de:	0000      	movs	r0, r0
    10e0:	01b4      	lsls	r4, r6, #6
    10e2:	0000      	movs	r0, r0
    10e4:	0000      	movs	r0, r0
    10e6:	0000      	movs	r0, r0
    10e8:	0003      	movs	r3, r0
    10ea:	0004      	movs	r4, r0
    10ec:	0000      	movs	r0, r0
    10ee:	0000      	movs	r0, r0
    10f0:	01cc      	lsls	r4, r1, #7
    10f2:	0000      	movs	r0, r0
    10f4:	0000      	movs	r0, r0
    10f6:	0000      	movs	r0, r0
    10f8:	0003      	movs	r3, r0
    10fa:	0005      	movs	r5, r0
    10fc:	0000      	movs	r0, r0
    10fe:	0000      	movs	r0, r0
    1100:	025c      	lsls	r4, r3, #9
    1102:	0000      	movs	r0, r0
    1104:	0000      	movs	r0, r0
    1106:	0000      	movs	r0, r0
    1108:	0003      	movs	r3, r0
    110a:	0006      	movs	r6, r0
    110c:	0000      	movs	r0, r0
    110e:	0000      	movs	r0, r0
    1110:	02de      	lsls	r6, r3, #11
    1112:	0000      	movs	r0, r0
    1114:	0000      	movs	r0, r0
    1116:	0000      	movs	r0, r0
    1118:	0003      	movs	r3, r0
    111a:	0007      	movs	r7, r0
    111c:	0000      	movs	r0, r0
    111e:	0000      	movs	r0, r0
    1120:	02f0      	lsls	r0, r6, #11
    1122:	0000      	movs	r0, r0
    1124:	0000      	movs	r0, r0
    1126:	0000      	movs	r0, r0
    1128:	0003      	movs	r3, r0
    112a:	0008      	movs	r0, r1
    112c:	0000      	movs	r0, r0
    112e:	0000      	movs	r0, r0
    1130:	0310      	lsls	r0, r2, #12
    1132:	0000      	movs	r0, r0
    1134:	0000      	movs	r0, r0
    1136:	0000      	movs	r0, r0
    1138:	0003      	movs	r3, r0
    113a:	0009      	movs	r1, r1
    113c:	0000      	movs	r0, r0
    113e:	0000      	movs	r0, r0
    1140:	0360      	lsls	r0, r4, #13
    1142:	0000      	movs	r0, r0
    1144:	0000      	movs	r0, r0
    1146:	0000      	movs	r0, r0
    1148:	0003      	movs	r3, r0
    114a:	000a      	movs	r2, r1
    114c:	0000      	movs	r0, r0
    114e:	0000      	movs	r0, r0
    1150:	0380      	lsls	r0, r0, #14
    1152:	0000      	movs	r0, r0
    1154:	0000      	movs	r0, r0
    1156:	0000      	movs	r0, r0
    1158:	0003      	movs	r3, r0
    115a:	000b      	movs	r3, r1
    115c:	0000      	movs	r0, r0
    115e:	0000      	movs	r0, r0
    1160:	038c      	lsls	r4, r1, #14
    1162:	0000      	movs	r0, r0
    1164:	0000      	movs	r0, r0
    1166:	0000      	movs	r0, r0
    1168:	0003      	movs	r3, r0
    116a:	000c      	movs	r4, r1
    116c:	0000      	movs	r0, r0
    116e:	0000      	movs	r0, r0
    1170:	03d0      	lsls	r0, r2, #15
    1172:	0000      	movs	r0, r0
    1174:	0000      	movs	r0, r0
    1176:	0000      	movs	r0, r0
    1178:	0003      	movs	r3, r0
    117a:	000d      	movs	r5, r1
    117c:	0000      	movs	r0, r0
    117e:	0000      	movs	r0, r0
    1180:	0558      	lsls	r0, r3, #21
    1182:	0000      	movs	r0, r0
    1184:	0000      	movs	r0, r0
    1186:	0000      	movs	r0, r0
    1188:	0003      	movs	r3, r0
    118a:	000e      	movs	r6, r1
    118c:	0000      	movs	r0, r0
    118e:	0000      	movs	r0, r0
    1190:	0560      	lsls	r0, r4, #21
    1192:	0000      	movs	r0, r0
    1194:	0000      	movs	r0, r0
    1196:	0000      	movs	r0, r0
    1198:	0003      	movs	r3, r0
    119a:	000f      	movs	r7, r1
    119c:	0000      	movs	r0, r0
    119e:	0000      	movs	r0, r0
    11a0:	0684      	lsls	r4, r0, #26
    11a2:	0000      	movs	r0, r0
    11a4:	0000      	movs	r0, r0
    11a6:	0000      	movs	r0, r0
    11a8:	0003      	movs	r3, r0
    11aa:	0010      	movs	r0, r2
    11ac:	0000      	movs	r0, r0
    11ae:	0000      	movs	r0, r0
    11b0:	068c      	lsls	r4, r1, #26
    11b2:	0000      	movs	r0, r0
    11b4:	0000      	movs	r0, r0
    11b6:	0000      	movs	r0, r0
    11b8:	0003      	movs	r3, r0
    11ba:	0011      	movs	r1, r2
    11bc:	0000      	movs	r0, r0
    11be:	0000      	movs	r0, r0
    11c0:	0f08      	lsrs	r0, r1, #28
    11c2:	0001      	movs	r1, r0
    11c4:	0000      	movs	r0, r0
    11c6:	0000      	movs	r0, r0
    11c8:	0003      	movs	r3, r0
    11ca:	0012      	movs	r2, r2
    11cc:	0000      	movs	r0, r0
    11ce:	0000      	movs	r0, r0
    11d0:	0f0c      	lsrs	r4, r1, #28
    11d2:	0001      	movs	r1, r0
    11d4:	0000      	movs	r0, r0
    11d6:	0000      	movs	r0, r0
    11d8:	0003      	movs	r3, r0
    11da:	0013      	movs	r3, r2
    11dc:	0000      	movs	r0, r0
    11de:	0000      	movs	r0, r0
    11e0:	0f10      	lsrs	r0, r2, #28
    11e2:	0001      	movs	r1, r0
    11e4:	0000      	movs	r0, r0
    11e6:	0000      	movs	r0, r0
    11e8:	0003      	movs	r3, r0
    11ea:	0014      	movs	r4, r2
    11ec:	0000      	movs	r0, r0
    11ee:	0000      	movs	r0, r0
    11f0:	1000      	asrs	r0, r0, #32
    11f2:	0001      	movs	r1, r0
    11f4:	0000      	movs	r0, r0
    11f6:	0000      	movs	r0, r0
    11f8:	0003      	movs	r3, r0
    11fa:	0015      	movs	r5, r2
    11fc:	0000      	movs	r0, r0
    11fe:	0000      	movs	r0, r0
    1200:	1038      	asrs	r0, r7, #32
    1202:	0001      	movs	r1, r0
    1204:	0000      	movs	r0, r0
    1206:	0000      	movs	r0, r0
    1208:	0003      	movs	r3, r0
    120a:	0016      	movs	r6, r2
    120c:	0000      	movs	r0, r0
    120e:	0000      	movs	r0, r0
    1210:	1040      	asrs	r0, r0, #1
    1212:	0001      	movs	r1, r0
    1214:	0000      	movs	r0, r0
    1216:	0000      	movs	r0, r0
    1218:	0003      	movs	r3, r0
    121a:	0017      	movs	r7, r2
	...
    1228:	0003      	movs	r3, r0
    122a:	0018      	movs	r0, r3
	...
    1238:	0003      	movs	r3, r0
    123a:	0019      	movs	r1, r3
    123c:	0001      	movs	r1, r0
	...
    1246:	0000      	movs	r0, r0
    1248:	0004      	movs	r4, r0
    124a:	fff1 0057 	vshr.u32	q8, <illegal reg q3.5>, #15
    124e:	0000      	movs	r0, r0
    1250:	0194      	lsls	r4, r2, #6
	...
    125a:	0003      	movs	r3, r0
    125c:	005a      	lsls	r2, r3, #1
    125e:	0000      	movs	r0, r0
    1260:	03d0      	lsls	r0, r2, #15
	...
    126a:	000d      	movs	r5, r1
    126c:	0057      	lsls	r7, r2, #1
    126e:	0000      	movs	r0, r0
    1270:	0408      	lsls	r0, r1, #16
	...
    127a:	000d      	movs	r5, r1
    127c:	0057      	lsls	r7, r2, #1
    127e:	0000      	movs	r0, r0
    1280:	0684      	lsls	r4, r0, #26
	...
    128a:	0010      	movs	r0, r2
    128c:	0057      	lsls	r7, r2, #1
    128e:	0000      	movs	r0, r0
    1290:	0560      	lsls	r0, r4, #21
	...
    129a:	000f      	movs	r7, r1
    129c:	0057      	lsls	r7, r2, #1
    129e:	0000      	movs	r0, r0
    12a0:	1038      	asrs	r0, r7, #32
    12a2:	0001      	movs	r1, r0
    12a4:	0000      	movs	r0, r0
    12a6:	0000      	movs	r0, r0
    12a8:	0000      	movs	r0, r0
    12aa:	0016      	movs	r6, r2
    12ac:	005d      	lsls	r5, r3, #1
	...
    12b6:	0000      	movs	r0, r0
    12b8:	0004      	movs	r4, r0
    12ba:	fff1 00b2 	vshr.u64	d16, d18, #15
    12be:	0000      	movs	r0, r0
    12c0:	0418      	lsls	r0, r3, #16
	...
    12ca:	000d      	movs	r5, r1
    12cc:	00b5      	lsls	r5, r6, #2
    12ce:	0000      	movs	r0, r0
    12d0:	0418      	lsls	r0, r3, #16
    12d2:	0000      	movs	r0, r0
    12d4:	0000      	movs	r0, r0
    12d6:	0000      	movs	r0, r0
    12d8:	0002      	movs	r2, r0
    12da:	000d      	movs	r5, r1
    12dc:	0057      	lsls	r7, r2, #1
    12de:	0000      	movs	r0, r0
    12e0:	0434      	lsls	r4, r6, #16
	...
    12ea:	000d      	movs	r5, r1
    12ec:	00b2      	lsls	r2, r6, #2
    12ee:	0000      	movs	r0, r0
    12f0:	0380      	lsls	r0, r0, #14
	...
    12fa:	000b      	movs	r3, r1
    12fc:	00b2      	lsls	r2, r6, #2
    12fe:	0000      	movs	r0, r0
    1300:	0558      	lsls	r0, r3, #21
	...
    130a:	000e      	movs	r6, r1
    130c:	00c2      	lsls	r2, r0, #3
	...
    1316:	0000      	movs	r0, r0
    1318:	0004      	movs	r4, r0
    131a:	fff1 00b2 	vshr.u64	d16, d18, #15
    131e:	0000      	movs	r0, r0
    1320:	0388      	lsls	r0, r1, #14
	...
    132a:	000b      	movs	r3, r1
    132c:	00b2      	lsls	r2, r6, #2
    132e:	0000      	movs	r0, r0
    1330:	055c      	lsls	r4, r3, #21
	...
    133a:	000e      	movs	r6, r1
    133c:	0117      	lsls	r7, r2, #4
	...
    1346:	0000      	movs	r0, r0
    1348:	0004      	movs	r4, r0
    134a:	fff1 0057 	vshr.u32	q8, <illegal reg q3.5>, #15
    134e:	0000      	movs	r0, r0
    1350:	0564      	lsls	r4, r4, #21
	...
    135a:	000f      	movs	r7, r1
    135c:	0122      	lsls	r2, r4, #4
    135e:	0000      	movs	r0, r0
    1360:	0564      	lsls	r4, r4, #21
    1362:	0000      	movs	r0, r0
    1364:	0000      	movs	r0, r0
    1366:	0000      	movs	r0, r0
    1368:	0001      	movs	r1, r0
    136a:	000f      	movs	r7, r1
    136c:	005a      	lsls	r2, r3, #1
    136e:	0000      	movs	r0, r0
    1370:	043c      	lsls	r4, r7, #16
	...
    137a:	000d      	movs	r5, r1
    137c:	0134      	lsls	r4, r6, #4
    137e:	0000      	movs	r0, r0
    1380:	043d      	lsls	r5, r7, #16
    1382:	0000      	movs	r0, r0
    1384:	0000      	movs	r0, r0
    1386:	0000      	movs	r0, r0
    1388:	0002      	movs	r2, r0
    138a:	000d      	movs	r5, r1
    138c:	0057      	lsls	r7, r2, #1
    138e:	0000      	movs	r0, r0
    1390:	0458      	lsls	r0, r3, #17
	...
    139a:	000d      	movs	r5, r1
    139c:	005a      	lsls	r2, r3, #1
    139e:	0000      	movs	r0, r0
    13a0:	0468      	lsls	r0, r5, #17
	...
    13aa:	000d      	movs	r5, r1
    13ac:	0136      	lsls	r6, r6, #4
    13ae:	0000      	movs	r0, r0
    13b0:	0469      	lsls	r1, r5, #17
    13b2:	0000      	movs	r0, r0
    13b4:	0000      	movs	r0, r0
    13b6:	0000      	movs	r0, r0
    13b8:	0002      	movs	r2, r0
    13ba:	000d      	movs	r5, r1
    13bc:	0057      	lsls	r7, r2, #1
    13be:	0000      	movs	r0, r0
    13c0:	048c      	lsls	r4, r1, #18
	...
    13ca:	000d      	movs	r5, r1
    13cc:	0057      	lsls	r7, r2, #1
    13ce:	0000      	movs	r0, r0
    13d0:	103c      	asrs	r4, r7, #32
    13d2:	0001      	movs	r1, r0
    13d4:	0000      	movs	r0, r0
    13d6:	0000      	movs	r0, r0
    13d8:	0000      	movs	r0, r0
    13da:	0016      	movs	r6, r2
    13dc:	005a      	lsls	r2, r3, #1
    13de:	0000      	movs	r0, r0
    13e0:	049c      	lsls	r4, r3, #18
	...
    13ea:	000d      	movs	r5, r1
    13ec:	0149      	lsls	r1, r1, #5
    13ee:	0000      	movs	r0, r0
    13f0:	049d      	lsls	r5, r3, #18
    13f2:	0000      	movs	r0, r0
    13f4:	0000      	movs	r0, r0
    13f6:	0000      	movs	r0, r0
    13f8:	0002      	movs	r2, r0
    13fa:	000d      	movs	r5, r1
    13fc:	0057      	lsls	r7, r2, #1
    13fe:	0000      	movs	r0, r0
    1400:	04c8      	lsls	r0, r1, #19
	...
    140a:	000d      	movs	r5, r1
    140c:	015f      	lsls	r7, r3, #5
    140e:	0000      	movs	r0, r0
    1410:	1040      	asrs	r0, r0, #1
    1412:	0001      	movs	r1, r0
    1414:	0001      	movs	r1, r0
    1416:	0000      	movs	r0, r0
    1418:	0001      	movs	r1, r0
    141a:	0017      	movs	r7, r2
    141c:	0057      	lsls	r7, r2, #1
    141e:	0000      	movs	r0, r0
    1420:	0f0c      	lsrs	r4, r1, #28
    1422:	0001      	movs	r1, r0
    1424:	0000      	movs	r0, r0
    1426:	0000      	movs	r0, r0
    1428:	0000      	movs	r0, r0
    142a:	0013      	movs	r3, r2
    142c:	016b      	lsls	r3, r5, #5
    142e:	0000      	movs	r0, r0
    1430:	0f0c      	lsrs	r4, r1, #28
    1432:	0001      	movs	r1, r0
    1434:	0000      	movs	r0, r0
    1436:	0000      	movs	r0, r0
    1438:	0001      	movs	r1, r0
    143a:	0013      	movs	r3, r2
    143c:	005a      	lsls	r2, r3, #1
    143e:	0000      	movs	r0, r0
    1440:	04dc      	lsls	r4, r3, #19
	...
    144a:	000d      	movs	r5, r1
    144c:	0192      	lsls	r2, r2, #6
    144e:	0000      	movs	r0, r0
    1450:	04dd      	lsls	r5, r3, #19
    1452:	0000      	movs	r0, r0
    1454:	0000      	movs	r0, r0
    1456:	0000      	movs	r0, r0
    1458:	0002      	movs	r2, r0
    145a:	000d      	movs	r5, r1
    145c:	0057      	lsls	r7, r2, #1
    145e:	0000      	movs	r0, r0
    1460:	0f08      	lsrs	r0, r1, #28
    1462:	0001      	movs	r1, r0
    1464:	0000      	movs	r0, r0
    1466:	0000      	movs	r0, r0
    1468:	0000      	movs	r0, r0
    146a:	0012      	movs	r2, r2
    146c:	019e      	lsls	r6, r3, #6
    146e:	0000      	movs	r0, r0
    1470:	0f08      	lsrs	r0, r1, #28
    1472:	0001      	movs	r1, r0
    1474:	0000      	movs	r0, r0
    1476:	0000      	movs	r0, r0
    1478:	0001      	movs	r1, r0
    147a:	0012      	movs	r2, r2
    147c:	0057      	lsls	r7, r2, #1
    147e:	0000      	movs	r0, r0
    1480:	1040      	asrs	r0, r0, #1
    1482:	0001      	movs	r1, r0
    1484:	0000      	movs	r0, r0
    1486:	0000      	movs	r0, r0
    1488:	0000      	movs	r0, r0
    148a:	0017      	movs	r7, r2
    148c:	01bd      	lsls	r5, r7, #6
	...
    1496:	0000      	movs	r0, r0
    1498:	0004      	movs	r4, r0
    149a:	fff1 00b2 	vshr.u64	d16, d18, #15
    149e:	0000      	movs	r0, r0
    14a0:	04e0      	lsls	r0, r4, #19
	...
    14aa:	000d      	movs	r5, r1
    14ac:	01ca      	lsls	r2, r1, #7
	...
    14b6:	0000      	movs	r0, r0
    14b8:	0004      	movs	r4, r0
    14ba:	fff1 005a 	vshr.u32	q8, q5, #15
    14be:	0000      	movs	r0, r0
    14c0:	0514      	lsls	r4, r2, #20
	...
    14ca:	000d      	movs	r5, r1
    14cc:	0057      	lsls	r7, r2, #1
    14ce:	0000      	movs	r0, r0
    14d0:	054c      	lsls	r4, r1, #21
	...
    14da:	000d      	movs	r5, r1
    14dc:	005a      	lsls	r2, r3, #1
    14de:	0000      	movs	r0, r0
    14e0:	0554      	lsls	r4, r2, #21
	...
    14ea:	000d      	movs	r5, r1
    14ec:	0117      	lsls	r7, r2, #4
	...
    14f6:	0000      	movs	r0, r0
    14f8:	0004      	movs	r4, r0
    14fa:	fff1 0057 	vshr.u32	q8, <illegal reg q3.5>, #15
    14fe:	0000      	movs	r0, r0
    1500:	05f4      	lsls	r4, r6, #23
	...
    150a:	000f      	movs	r7, r1
    150c:	0122      	lsls	r2, r4, #4
    150e:	0000      	movs	r0, r0
    1510:	05f4      	lsls	r4, r6, #23
    1512:	0000      	movs	r0, r0
    1514:	0000      	movs	r0, r0
    1516:	0000      	movs	r0, r0
    1518:	0001      	movs	r1, r0
    151a:	000f      	movs	r7, r1
    151c:	0057      	lsls	r7, r2, #1
    151e:	0000      	movs	r0, r0
    1520:	068c      	lsls	r4, r1, #26
	...
    152a:	0011      	movs	r1, r2
    152c:	01d6      	lsls	r6, r2, #7
    152e:	0000      	movs	r0, r0
    1530:	068c      	lsls	r4, r1, #26
    1532:	0000      	movs	r0, r0
    1534:	0000      	movs	r0, r0
    1536:	0000      	movs	r0, r0
    1538:	0001      	movs	r1, r0
    153a:	0011      	movs	r1, r2
	...
    1548:	0004      	movs	r4, r0
    154a:	fff1 01e4 	vcle.s8	q8, q10, #0
    154e:	0000      	movs	r0, r0
    1550:	0f0c      	lsrs	r4, r1, #28
    1552:	0001      	movs	r1, r0
    1554:	0000      	movs	r0, r0
    1556:	0000      	movs	r0, r0
    1558:	0000      	movs	r0, r0
    155a:	0012      	movs	r2, r2
    155c:	01f5      	lsls	r5, r6, #7
    155e:	0000      	movs	r0, r0
    1560:	0f10      	lsrs	r0, r2, #28
    1562:	0001      	movs	r1, r0
    1564:	0000      	movs	r0, r0
    1566:	0000      	movs	r0, r0
    1568:	0001      	movs	r1, r0
    156a:	fff1 01fe 	vsra.u64	q8, q15, #15
    156e:	0000      	movs	r0, r0
    1570:	0f08      	lsrs	r0, r1, #28
    1572:	0001      	movs	r1, r0
    1574:	0000      	movs	r0, r0
    1576:	0000      	movs	r0, r0
    1578:	0000      	movs	r0, r0
    157a:	0012      	movs	r2, r2
    157c:	0211      	lsls	r1, r2, #8
    157e:	0000      	movs	r0, r0
    1580:	1000      	asrs	r0, r0, #32
    1582:	0001      	movs	r1, r0
    1584:	0000      	movs	r0, r0
    1586:	0000      	movs	r0, r0
    1588:	0001      	movs	r1, r0
    158a:	fff1 02eb 	vmlal.u<illegal width 64>	q8, d17, d27[0]
    158e:	0000      	movs	r0, r0
    1590:	0380      	lsls	r0, r0, #14
    1592:	0000      	movs	r0, r0
    1594:	0000      	movs	r0, r0
    1596:	0000      	movs	r0, r0
    1598:	0002      	movs	r2, r0
    159a:	000b      	movs	r3, r1
    159c:	00b2      	lsls	r2, r6, #2
    159e:	0000      	movs	r0, r0
    15a0:	038c      	lsls	r4, r1, #14
	...
    15aa:	000c      	movs	r4, r1
    15ac:	0057      	lsls	r7, r2, #1
    15ae:	0000      	movs	r0, r0
    15b0:	039c      	lsls	r4, r3, #14
	...
    15ba:	000c      	movs	r4, r1
    15bc:	00b2      	lsls	r2, r6, #2
    15be:	0000      	movs	r0, r0
    15c0:	03a0      	lsls	r0, r4, #14
	...
    15ca:	000c      	movs	r4, r1
    15cc:	0227      	lsls	r7, r4, #8
    15ce:	0000      	movs	r0, r0
    15d0:	0555      	lsls	r5, r2, #21
    15d2:	0000      	movs	r0, r0
    15d4:	0002      	movs	r2, r0
    15d6:	0000      	movs	r0, r0
    15d8:	0012      	movs	r2, r2
    15da:	000d      	movs	r5, r1
    15dc:	0237      	lsls	r7, r6, #8
	...
    15e6:	0000      	movs	r0, r0
    15e8:	0022      	movs	r2, r4
    15ea:	0000      	movs	r0, r0
    15ec:	0250      	lsls	r0, r2, #9
	...
    15f6:	0000      	movs	r0, r0
    15f8:	0020      	movs	r0, r4
    15fa:	0000      	movs	r0, r0
    15fc:	028f      	lsls	r7, r1, #10
    15fe:	0000      	movs	r0, r0
    1600:	1038      	asrs	r0, r7, #32
    1602:	0001      	movs	r1, r0
    1604:	0000      	movs	r0, r0
    1606:	0000      	movs	r0, r0
    1608:	0020      	movs	r0, r4
    160a:	0016      	movs	r6, r2
    160c:	026c      	lsls	r4, r5, #9
    160e:	0000      	movs	r0, r0
    1610:	1040      	asrs	r0, r0, #1
    1612:	0001      	movs	r1, r0
    1614:	0000      	movs	r0, r0
    1616:	0000      	movs	r0, r0
    1618:	0010      	movs	r0, r2
    161a:	0017      	movs	r7, r2
    161c:	0282      	lsls	r2, r0, #10
    161e:	0000      	movs	r0, r0
    1620:	1044      	asrs	r4, r0, #1
    1622:	0001      	movs	r1, r0
    1624:	0000      	movs	r0, r0
    1626:	0000      	movs	r0, r0
    1628:	0010      	movs	r0, r2
    162a:	0017      	movs	r7, r2
    162c:	027a      	lsls	r2, r7, #9
    162e:	0000      	movs	r0, r0
    1630:	1040      	asrs	r0, r0, #1
    1632:	0001      	movs	r1, r0
    1634:	0000      	movs	r0, r0
    1636:	0000      	movs	r0, r0
    1638:	0010      	movs	r0, r2
    163a:	0016      	movs	r6, r2
    163c:	0231      	lsls	r1, r6, #8
    163e:	0000      	movs	r0, r0
    1640:	0558      	lsls	r0, r3, #21
    1642:	0000      	movs	r0, r0
    1644:	0000      	movs	r0, r0
    1646:	0000      	movs	r0, r0
    1648:	0212      	lsls	r2, r2, #8
    164a:	000e      	movs	r6, r1
    164c:	0281      	lsls	r1, r0, #10
    164e:	0000      	movs	r0, r0
    1650:	1044      	asrs	r4, r0, #1
    1652:	0001      	movs	r1, r0
    1654:	0000      	movs	r0, r0
    1656:	0000      	movs	r0, r0
    1658:	0010      	movs	r0, r2
    165a:	0017      	movs	r7, r2
    165c:	028d      	lsls	r5, r1, #10
    165e:	0000      	movs	r0, r0
    1660:	1038      	asrs	r0, r7, #32
    1662:	0001      	movs	r1, r0
    1664:	0000      	movs	r0, r0
    1666:	0000      	movs	r0, r0
    1668:	0010      	movs	r0, r2
    166a:	0016      	movs	r6, r2
    166c:	029a      	lsls	r2, r3, #10
	...
    1676:	0000      	movs	r0, r0
    1678:	0012      	movs	r2, r2
    167a:	0000      	movs	r0, r0
    167c:	02b6      	lsls	r6, r6, #10
	...
    1686:	0000      	movs	r0, r0
    1688:	0020      	movs	r0, r4
    168a:	0000      	movs	r0, r0
    168c:	02c5      	lsls	r5, r0, #11
    168e:	0000      	movs	r0, r0
    1690:	103c      	asrs	r4, r7, #32
    1692:	0001      	movs	r1, r0
    1694:	0000      	movs	r0, r0
    1696:	0000      	movs	r0, r0
    1698:	0211      	lsls	r1, r2, #8
    169a:	0016      	movs	r6, r2
    169c:	02d2      	lsls	r2, r2, #11
    169e:	0000      	movs	r0, r0
    16a0:	0560      	lsls	r0, r4, #21
    16a2:	0000      	movs	r0, r0
    16a4:	0004      	movs	r4, r0
    16a6:	0000      	movs	r0, r0
    16a8:	0011      	movs	r1, r2
    16aa:	000f      	movs	r7, r1
    16ac:	02e1      	lsls	r1, r4, #11
    16ae:	0000      	movs	r0, r0
    16b0:	0515      	lsls	r5, r2, #20
    16b2:	0000      	movs	r0, r0
    16b4:	0040      	lsls	r0, r0, #1
    16b6:	0000      	movs	r0, r0
    16b8:	0012      	movs	r2, r2
    16ba:	000d      	movs	r5, r1
    16bc:	01f0      	lsls	r0, r6, #7
    16be:	0000      	movs	r0, r0
    16c0:	1044      	asrs	r4, r0, #1
    16c2:	0001      	movs	r1, r0
    16c4:	0000      	movs	r0, r0
    16c6:	0000      	movs	r0, r0
    16c8:	0010      	movs	r0, r2
    16ca:	0017      	movs	r7, r2
    16cc:	0293      	lsls	r3, r2, #10
    16ce:	0000      	movs	r0, r0
    16d0:	03d1      	lsls	r1, r2, #15
    16d2:	0000      	movs	r0, r0
    16d4:	0000      	movs	r0, r0
    16d6:	0000      	movs	r0, r0
    16d8:	0012      	movs	r2, r2
    16da:	000d      	movs	r5, r1
    16dc:	02f1      	lsls	r1, r6, #11
    16de:	0000      	movs	r0, r0
    16e0:	1044      	asrs	r4, r0, #1
    16e2:	0001      	movs	r1, r0
    16e4:	0000      	movs	r0, r0
    16e6:	0000      	movs	r0, r0
    16e8:	0010      	movs	r0, r2
    16ea:	0017      	movs	r7, r2
    16ec:	02f9      	lsls	r1, r7, #11
    16ee:	0000      	movs	r0, r0
    16f0:	1040      	asrs	r0, r0, #1
    16f2:	0001      	movs	r1, r0
    16f4:	0000      	movs	r0, r0
    16f6:	0000      	movs	r0, r0
    16f8:	0010      	movs	r0, r2
    16fa:	0017      	movs	r7, r2
    16fc:	0305      	lsls	r5, r0, #12
    16fe:	0000      	movs	r0, r0
    1700:	04e0      	lsls	r0, r4, #19
    1702:	0000      	movs	r0, r0
    1704:	0034      	movs	r4, r6
    1706:	0000      	movs	r0, r0
    1708:	0012      	movs	r2, r2
    170a:	000d      	movs	r5, r1
    170c:	030a      	lsls	r2, r1, #12
    170e:	0000      	movs	r0, r0
    1710:	1040      	asrs	r0, r0, #1
    1712:	0001      	movs	r1, r0
    1714:	0000      	movs	r0, r0
    1716:	0000      	movs	r0, r0
    1718:	0211      	lsls	r1, r2, #8
    171a:	0016      	movs	r6, r2
    171c:	0316      	lsls	r6, r2, #12
	...
    1726:	0000      	movs	r0, r0
    1728:	0020      	movs	r0, r4
    172a:	0000      	movs	r0, r0
    172c:	0330      	lsls	r0, r6, #12
	...
    1736:	0000      	movs	r0, r0
    1738:	0012      	movs	r2, r2
    173a:	0000      	movs	r0, r0
    173c:	2f00      	cmp	r7, #0
    173e:	7375      	strb	r5, [r6, #13]
    1740:	2f72      	cmp	r7, #114	; 0x72
    1742:	696c      	ldr	r4, [r5, #20]
    1744:	2f62      	cmp	r7, #98	; 0x62
    1746:	6367      	str	r7, [r4, #52]	; 0x34
    1748:	2d63      	cmp	r5, #99	; 0x63
    174a:	7263      	strb	r3, [r4, #9]
    174c:	736f      	strb	r7, [r5, #13]
    174e:	2f73      	cmp	r7, #115	; 0x73
    1750:	7261      	strb	r1, [r4, #9]
    1752:	2d6d      	cmp	r5, #109	; 0x6d
    1754:	696c      	ldr	r4, [r5, #20]
    1756:	756e      	strb	r6, [r5, #21]
    1758:	2d78      	cmp	r5, #120	; 0x78
    175a:	6e67      	ldr	r7, [r4, #100]	; 0x64
    175c:	6575      	str	r5, [r6, #84]	; 0x54
    175e:	6261      	str	r1, [r4, #36]	; 0x24
    1760:	6869      	ldr	r1, [r5, #4]
    1762:	2f66      	cmp	r7, #102	; 0x66
    1764:	3031      	adds	r0, #49	; 0x31
    1766:	2e2f      	cmp	r6, #47	; 0x2f
    1768:	2f2e      	cmp	r7, #46	; 0x2e
    176a:	2e2e      	cmp	r6, #46	; 0x2e
    176c:	2e2f      	cmp	r6, #47	; 0x2f
    176e:	2f2e      	cmp	r7, #46	; 0x2e
    1770:	2e2e      	cmp	r6, #46	; 0x2e
    1772:	612f      	str	r7, [r5, #16]
    1774:	6d72      	ldr	r2, [r6, #84]	; 0x54
    1776:	6c2d      	ldr	r5, [r5, #64]	; 0x40
    1778:	6e69      	ldr	r1, [r5, #100]	; 0x64
    177a:	7875      	ldrb	r5, [r6, #1]
    177c:	672d      	str	r5, [r5, #112]	; 0x70
    177e:	756e      	strb	r6, [r5, #21]
    1780:	6165      	str	r5, [r4, #20]
    1782:	6962      	ldr	r2, [r4, #20]
    1784:	6668      	str	r0, [r5, #100]	; 0x64
    1786:	6c2f      	ldr	r7, [r5, #64]	; 0x40
    1788:	6269      	str	r1, [r5, #36]	; 0x24
    178a:	532f      	strh	r7, [r5, r4]
    178c:	7263      	strb	r3, [r4, #9]
    178e:	3174      	adds	r1, #116	; 0x74
    1790:	6f2e      	ldr	r6, [r5, #112]	; 0x70
    1792:	2400      	movs	r4, #0
    1794:	0064      	lsls	r4, r4, #1
    1796:	7424      	strb	r4, [r4, #16]
    1798:	2f00      	cmp	r7, #0
    179a:	7375      	strb	r5, [r6, #13]
    179c:	2f72      	cmp	r7, #114	; 0x72
    179e:	696c      	ldr	r4, [r5, #20]
    17a0:	2f62      	cmp	r7, #98	; 0x62
    17a2:	6367      	str	r7, [r4, #52]	; 0x34
    17a4:	2d63      	cmp	r5, #99	; 0x63
    17a6:	7263      	strb	r3, [r4, #9]
    17a8:	736f      	strb	r7, [r5, #13]
    17aa:	2f73      	cmp	r7, #115	; 0x73
    17ac:	7261      	strb	r1, [r4, #9]
    17ae:	2d6d      	cmp	r5, #109	; 0x6d
    17b0:	696c      	ldr	r4, [r5, #20]
    17b2:	756e      	strb	r6, [r5, #21]
    17b4:	2d78      	cmp	r5, #120	; 0x78
    17b6:	6e67      	ldr	r7, [r4, #100]	; 0x64
    17b8:	6575      	str	r5, [r6, #84]	; 0x54
    17ba:	6261      	str	r1, [r4, #36]	; 0x24
    17bc:	6869      	ldr	r1, [r5, #4]
    17be:	2f66      	cmp	r7, #102	; 0x66
    17c0:	3031      	adds	r0, #49	; 0x31
    17c2:	2e2f      	cmp	r6, #47	; 0x2f
    17c4:	2f2e      	cmp	r7, #46	; 0x2e
    17c6:	2e2e      	cmp	r6, #46	; 0x2e
    17c8:	2e2f      	cmp	r6, #47	; 0x2f
    17ca:	2f2e      	cmp	r7, #46	; 0x2e
    17cc:	2e2e      	cmp	r6, #46	; 0x2e
    17ce:	612f      	str	r7, [r5, #16]
    17d0:	6d72      	ldr	r2, [r6, #84]	; 0x54
    17d2:	6c2d      	ldr	r5, [r5, #64]	; 0x40
    17d4:	6e69      	ldr	r1, [r5, #100]	; 0x64
    17d6:	7875      	ldrb	r5, [r6, #1]
    17d8:	672d      	str	r5, [r5, #112]	; 0x70
    17da:	756e      	strb	r6, [r5, #21]
    17dc:	6165      	str	r5, [r4, #20]
    17de:	6962      	ldr	r2, [r4, #20]
    17e0:	6668      	str	r0, [r5, #100]	; 0x64
    17e2:	6c2f      	ldr	r7, [r5, #64]	; 0x40
    17e4:	6269      	str	r1, [r5, #36]	; 0x24
    17e6:	632f      	str	r7, [r5, #48]	; 0x30
    17e8:	7472      	strb	r2, [r6, #17]
    17ea:	2e69      	cmp	r6, #105	; 0x69
    17ec:	006f      	lsls	r7, r5, #1
    17ee:	6124      	str	r4, [r4, #16]
    17f0:	6300      	str	r0, [r0, #48]	; 0x30
    17f2:	6c61      	ldr	r1, [r4, #68]	; 0x44
    17f4:	5f6c      	ldrsh	r4, [r5, r5]
    17f6:	6577      	str	r7, [r6, #84]	; 0x54
    17f8:	6b61      	ldr	r1, [r4, #52]	; 0x34
    17fa:	665f      	str	r7, [r3, #100]	; 0x64
    17fc:	006e      	lsls	r6, r5, #1
    17fe:	752f      	strb	r7, [r5, #20]
    1800:	7273      	strb	r3, [r6, #9]
    1802:	6c2f      	ldr	r7, [r5, #64]	; 0x40
    1804:	6269      	str	r1, [r5, #36]	; 0x24
    1806:	672f      	str	r7, [r5, #112]	; 0x70
    1808:	6363      	str	r3, [r4, #52]	; 0x34
    180a:	632d      	str	r5, [r5, #48]	; 0x30
    180c:	6f72      	ldr	r2, [r6, #116]	; 0x74
    180e:	7373      	strb	r3, [r6, #13]
    1810:	612f      	str	r7, [r5, #16]
    1812:	6d72      	ldr	r2, [r6, #84]	; 0x54
    1814:	6c2d      	ldr	r5, [r5, #64]	; 0x40
    1816:	6e69      	ldr	r1, [r5, #100]	; 0x64
    1818:	7875      	ldrb	r5, [r6, #1]
    181a:	672d      	str	r5, [r5, #112]	; 0x70
    181c:	756e      	strb	r6, [r5, #21]
    181e:	6165      	str	r5, [r4, #20]
    1820:	6962      	ldr	r2, [r4, #20]
    1822:	6668      	str	r0, [r5, #100]	; 0x64
    1824:	312f      	adds	r1, #47	; 0x2f
    1826:	2f30      	cmp	r7, #48	; 0x30
    1828:	2e2e      	cmp	r6, #46	; 0x2e
    182a:	2e2f      	cmp	r6, #47	; 0x2f
    182c:	2f2e      	cmp	r7, #46	; 0x2e
    182e:	2e2e      	cmp	r6, #46	; 0x2e
    1830:	2e2f      	cmp	r6, #47	; 0x2f
    1832:	2f2e      	cmp	r7, #46	; 0x2e
    1834:	7261      	strb	r1, [r4, #9]
    1836:	2d6d      	cmp	r5, #109	; 0x6d
    1838:	696c      	ldr	r4, [r5, #20]
    183a:	756e      	strb	r6, [r5, #21]
    183c:	2d78      	cmp	r5, #120	; 0x78
    183e:	6e67      	ldr	r7, [r4, #100]	; 0x64
    1840:	6575      	str	r5, [r6, #84]	; 0x54
    1842:	6261      	str	r1, [r4, #36]	; 0x24
    1844:	6869      	ldr	r1, [r5, #4]
    1846:	2f66      	cmp	r7, #102	; 0x66
    1848:	696c      	ldr	r4, [r5, #20]
    184a:	2f62      	cmp	r7, #98	; 0x62
    184c:	7263      	strb	r3, [r4, #9]
    184e:	6e74      	ldr	r4, [r6, #100]	; 0x64
    1850:	6f2e      	ldr	r6, [r5, #112]	; 0x70
    1852:	6300      	str	r0, [r0, #48]	; 0x30
    1854:	7472      	strb	r2, [r6, #17]
    1856:	7473      	strb	r3, [r6, #17]
    1858:	6675      	str	r5, [r6, #100]	; 0x64
    185a:	2e66      	cmp	r6, #102	; 0x66
    185c:	0063      	lsls	r3, r4, #1
    185e:	6c61      	ldr	r1, [r4, #68]	; 0x44
    1860:	5f6c      	ldrsh	r4, [r5, r5]
    1862:	6d69      	ldr	r1, [r5, #84]	; 0x54
    1864:	6c70      	ldr	r0, [r6, #68]	; 0x44
    1866:	6569      	str	r1, [r5, #84]	; 0x54
    1868:	5f64      	ldrsh	r4, [r4, r5]
    186a:	6266      	str	r6, [r4, #36]	; 0x24
    186c:	7469      	strb	r1, [r5, #17]
    186e:	0073      	lsls	r3, r6, #1
    1870:	6564      	str	r4, [r4, #84]	; 0x54
    1872:	6572      	str	r2, [r6, #84]	; 0x54
    1874:	6967      	ldr	r7, [r4, #20]
    1876:	7473      	strb	r3, [r6, #17]
    1878:	7265      	strb	r5, [r4, #9]
    187a:	745f      	strb	r7, [r3, #17]
    187c:	5f6d      	ldrsh	r5, [r5, r5]
    187e:	6c63      	ldr	r3, [r4, #68]	; 0x44
    1880:	6e6f      	ldr	r7, [r5, #100]	; 0x64
    1882:	7365      	strb	r5, [r4, #13]
    1884:	5f00      	ldrsh	r0, [r0, r4]
    1886:	645f      	str	r7, [r3, #68]	; 0x44
    1888:	5f6f      	ldrsh	r7, [r5, r5]
    188a:	6c67      	ldr	r7, [r4, #68]	; 0x44
    188c:	626f      	str	r7, [r5, #36]	; 0x24
    188e:	6c61      	ldr	r1, [r4, #68]	; 0x44
    1890:	645f      	str	r7, [r3, #68]	; 0x44
    1892:	6f74      	ldr	r4, [r6, #116]	; 0x74
    1894:	7372      	strb	r2, [r6, #13]
    1896:	615f      	str	r7, [r3, #20]
    1898:	7875      	ldrb	r5, [r6, #1]
    189a:	6300      	str	r0, [r0, #48]	; 0x30
    189c:	6d6f      	ldr	r7, [r5, #84]	; 0x54
    189e:	6c70      	ldr	r0, [r6, #68]	; 0x44
    18a0:	7465      	strb	r5, [r4, #17]
    18a2:	6465      	str	r5, [r4, #68]	; 0x44
    18a4:	302e      	adds	r0, #46	; 0x2e
    18a6:	5f00      	ldrsh	r0, [r0, r4]
    18a8:	645f      	str	r7, [r3, #68]	; 0x44
    18aa:	5f6f      	ldrsh	r7, [r5, r5]
    18ac:	6c67      	ldr	r7, [r4, #68]	; 0x44
    18ae:	626f      	str	r7, [r5, #36]	; 0x24
    18b0:	6c61      	ldr	r1, [r4, #68]	; 0x44
    18b2:	645f      	str	r7, [r3, #68]	; 0x44
    18b4:	6f74      	ldr	r4, [r6, #116]	; 0x74
    18b6:	7372      	strb	r2, [r6, #13]
    18b8:	615f      	str	r7, [r3, #20]
    18ba:	7875      	ldrb	r5, [r6, #1]
    18bc:	665f      	str	r7, [r3, #100]	; 0x64
    18be:	6e69      	ldr	r1, [r5, #100]	; 0x64
    18c0:	5f69      	ldrsh	r1, [r5, r5]
    18c2:	7261      	strb	r1, [r4, #9]
    18c4:	6172      	str	r2, [r6, #20]
    18c6:	5f79      	ldrsh	r1, [r7, r5]
    18c8:	6e65      	ldr	r5, [r4, #100]	; 0x64
    18ca:	7274      	strb	r4, [r6, #9]
    18cc:	0079      	lsls	r1, r7, #1
    18ce:	7266      	strb	r6, [r4, #9]
    18d0:	6d61      	ldr	r1, [r4, #84]	; 0x54
    18d2:	5f65      	ldrsh	r5, [r4, r5]
    18d4:	7564      	strb	r4, [r4, #21]
    18d6:	6d6d      	ldr	r5, [r5, #84]	; 0x54
    18d8:	0079      	lsls	r1, r7, #1
    18da:	5f5f      	ldrsh	r7, [r3, r5]
    18dc:	7266      	strb	r6, [r4, #9]
    18de:	6d61      	ldr	r1, [r4, #84]	; 0x54
    18e0:	5f65      	ldrsh	r5, [r4, r5]
    18e2:	7564      	strb	r4, [r4, #21]
    18e4:	6d6d      	ldr	r5, [r5, #84]	; 0x54
    18e6:	5f79      	ldrsh	r1, [r7, r5]
    18e8:	6e69      	ldr	r1, [r5, #100]	; 0x64
    18ea:	7469      	strb	r1, [r5, #17]
    18ec:	615f      	str	r7, [r3, #20]
    18ee:	7272      	strb	r2, [r6, #9]
    18f0:	7961      	ldrb	r1, [r4, #5]
    18f2:	655f      	str	r7, [r3, #84]	; 0x54
    18f4:	746e      	strb	r6, [r5, #17]
    18f6:	7972      	ldrb	r2, [r6, #5]
    18f8:	6800      	ldr	r0, [r0, #0]
    18fa:	6c65      	ldr	r5, [r4, #68]	; 0x44
    18fc:	6f6c      	ldr	r4, [r5, #116]	; 0x74
    18fe:	6f77      	ldr	r7, [r6, #116]	; 0x74
    1900:	6c72      	ldr	r2, [r6, #68]	; 0x44
    1902:	2e64      	cmp	r6, #100	; 0x64
    1904:	0063      	lsls	r3, r4, #1
    1906:	6c65      	ldr	r5, [r4, #68]	; 0x44
    1908:	2d66      	cmp	r5, #102	; 0x66
    190a:	6e69      	ldr	r1, [r5, #100]	; 0x64
    190c:	7469      	strb	r1, [r5, #17]
    190e:	6f2e      	ldr	r6, [r5, #112]	; 0x70
    1910:	0053      	lsls	r3, r2, #1
    1912:	5f5f      	ldrsh	r7, [r3, r5]
    1914:	5246      	strh	r6, [r0, r1]
    1916:	4d41      	ldr	r5, [pc, #260]	; (0x1a1c)
    1918:	5f45      	ldrsh	r5, [r0, r5]
    191a:	4e45      	ldr	r6, [pc, #276]	; (0x1a30)
    191c:	5f44      	ldrsh	r4, [r0, r5]
    191e:	005f      	lsls	r7, r3, #1
    1920:	5f5f      	ldrsh	r7, [r3, r5]
    1922:	6e69      	ldr	r1, [r5, #100]	; 0x64
    1924:	7469      	strb	r1, [r5, #17]
    1926:	615f      	str	r7, [r3, #20]
    1928:	7272      	strb	r2, [r6, #9]
    192a:	7961      	ldrb	r1, [r4, #5]
    192c:	655f      	str	r7, [r3, #84]	; 0x54
    192e:	646e      	str	r6, [r5, #68]	; 0x44
    1930:	5f00      	ldrsh	r0, [r0, r4]
    1932:	5944      	ldr	r4, [r0, r5]
    1934:	414e      	adcs	r6, r1
    1936:	494d      	ldr	r1, [pc, #308]	; (0x1a6c)
    1938:	0043      	lsls	r3, r0, #1
    193a:	5f5f      	ldrsh	r7, [r3, r5]
    193c:	6e69      	ldr	r1, [r5, #100]	; 0x64
    193e:	7469      	strb	r1, [r5, #17]
    1940:	615f      	str	r7, [r3, #20]
    1942:	7272      	strb	r2, [r6, #9]
    1944:	7961      	ldrb	r1, [r4, #5]
    1946:	735f      	strb	r7, [r3, #13]
    1948:	6174      	str	r4, [r6, #20]
    194a:	7472      	strb	r2, [r6, #17]
    194c:	5f00      	ldrsh	r0, [r0, r4]
    194e:	4c47      	ldr	r4, [pc, #284]	; (0x1a6c)
    1950:	424f      	negs	r7, r1
    1952:	4c41      	ldr	r4, [pc, #260]	; (0x1a58)
    1954:	4f5f      	ldr	r7, [pc, #380]	; (0x1ad4)
    1956:	4646      	mov	r6, r8
    1958:	4553      	cmp	r3, sl
    195a:	5f54      	ldrsh	r4, [r2, r5]
    195c:	4154      	adcs	r4, r2
    195e:	4c42      	ldr	r4, [pc, #264]	; (0x1a68)
    1960:	5f45      	ldrsh	r5, [r0, r5]
    1962:	5f00      	ldrsh	r0, [r0, r4]
    1964:	6c5f      	ldr	r7, [r3, #68]	; 0x44
    1966:	6269      	str	r1, [r5, #36]	; 0x24
    1968:	5f63      	ldrsh	r3, [r4, r5]
    196a:	7363      	strb	r3, [r4, #13]
    196c:	5f75      	ldrsh	r5, [r6, r5]
    196e:	6966      	ldr	r6, [r4, #20]
    1970:	696e      	ldr	r6, [r5, #20]
    1972:	5f00      	ldrsh	r0, [r0, r4]
    1974:	635f      	str	r7, [r3, #52]	; 0x34
    1976:	6178      	str	r0, [r7, #20]
    1978:	665f      	str	r7, [r3, #100]	; 0x64
    197a:	6e69      	ldr	r1, [r5, #100]	; 0x64
    197c:	6c61      	ldr	r1, [r4, #68]	; 0x44
    197e:	7a69      	ldrb	r1, [r5, #9]
    1980:	4065      	eors	r5, r4
    1982:	4c47      	ldr	r4, [pc, #284]	; (0x1aa0)
    1984:	4249      	negs	r1, r1
    1986:	5f43      	ldrsh	r3, [r0, r5]
    1988:	2e32      	cmp	r6, #50	; 0x32
    198a:	0034      	movs	r4, r6
    198c:	495f      	ldr	r1, [pc, #380]	; (0x1b0c)
    198e:	4d54      	ldr	r5, [pc, #336]	; (0x1ae0)
    1990:	645f      	str	r7, [r3, #68]	; 0x44
    1992:	7265      	strb	r5, [r4, #9]
    1994:	6765      	str	r5, [r4, #116]	; 0x74
    1996:	7369      	strb	r1, [r5, #13]
    1998:	6574      	str	r4, [r6, #84]	; 0x54
    199a:	5472      	strb	r2, [r6, r1]
    199c:	434d      	muls	r5, r1
    199e:	6f6c      	ldr	r4, [r5, #116]	; 0x74
    19a0:	656e      	str	r6, [r5, #84]	; 0x54
    19a2:	6154      	str	r4, [r2, #20]
    19a4:	6c62      	ldr	r2, [r4, #68]	; 0x44
    19a6:	0065      	lsls	r5, r4, #1
    19a8:	5f5f      	ldrsh	r7, [r3, r5]
    19aa:	7362      	strb	r2, [r4, #13]
    19ac:	5f73      	ldrsh	r3, [r6, r5]
    19ae:	7473      	strb	r3, [r6, #17]
    19b0:	7261      	strb	r1, [r4, #9]
    19b2:	5f74      	ldrsh	r4, [r6, r5]
    19b4:	005f      	lsls	r7, r3, #1
    19b6:	655f      	str	r7, [r3, #84]	; 0x54
    19b8:	6164      	str	r4, [r4, #20]
    19ba:	6174      	str	r4, [r6, #20]
    19bc:	5f00      	ldrsh	r0, [r0, r4]
    19be:	625f      	str	r7, [r3, #36]	; 0x24
    19c0:	7373      	strb	r3, [r6, #13]
    19c2:	655f      	str	r7, [r3, #84]	; 0x54
    19c4:	646e      	str	r6, [r5, #68]	; 0x44
    19c6:	5f5f      	ldrsh	r7, [r3, r5]
    19c8:	5f00      	ldrsh	r0, [r0, r4]
    19ca:	645f      	str	r7, [r3, #68]	; 0x44
    19cc:	7461      	strb	r1, [r4, #17]
    19ce:	5f61      	ldrsh	r1, [r4, r5]
    19d0:	7473      	strb	r3, [r6, #17]
    19d2:	7261      	strb	r1, [r4, #9]
    19d4:	0074      	lsls	r4, r6, #1
    19d6:	5f5f      	ldrsh	r7, [r3, r5]
    19d8:	696c      	ldr	r4, [r5, #20]
    19da:	6362      	str	r2, [r4, #52]	; 0x34
    19dc:	735f      	strb	r7, [r3, #13]
    19de:	6174      	str	r4, [r6, #20]
    19e0:	7472      	strb	r2, [r6, #17]
    19e2:	6d5f      	ldr	r7, [r3, #84]	; 0x54
    19e4:	6961      	ldr	r1, [r4, #20]
    19e6:	406e      	eors	r6, r5
    19e8:	4c47      	ldr	r4, [pc, #284]	; (0x1b08)
    19ea:	4249      	negs	r1, r1
    19ec:	5f43      	ldrsh	r3, [r0, r5]
    19ee:	2e32      	cmp	r6, #50	; 0x32
    19f0:	0034      	movs	r4, r6
    19f2:	5f5f      	ldrsh	r7, [r3, r5]
    19f4:	6d67      	ldr	r7, [r4, #84]	; 0x54
    19f6:	6e6f      	ldr	r7, [r5, #100]	; 0x64
    19f8:	735f      	strb	r7, [r3, #13]
    19fa:	6174      	str	r4, [r6, #20]
    19fc:	7472      	strb	r2, [r6, #17]
    19fe:	5f5f      	ldrsh	r7, [r3, r5]
    1a00:	5f00      	ldrsh	r0, [r0, r4]
    1a02:	645f      	str	r7, [r3, #68]	; 0x44
    1a04:	6f73      	ldr	r3, [r6, #116]	; 0x74
    1a06:	685f      	ldr	r7, [r3, #4]
    1a08:	6e61      	ldr	r1, [r4, #100]	; 0x64
    1a0a:	6c64      	ldr	r4, [r4, #68]	; 0x44
    1a0c:	0065      	lsls	r5, r4, #1
    1a0e:	495f      	ldr	r1, [pc, #380]	; (0x1b8c)
    1a10:	5f4f      	ldrsh	r7, [r1, r5]
    1a12:	7473      	strb	r3, [r6, #17]
    1a14:	6964      	ldr	r4, [r4, #20]
    1a16:	5f6e      	ldrsh	r6, [r5, r5]
    1a18:	7375      	strb	r5, [r6, #13]
    1a1a:	6465      	str	r5, [r4, #68]	; 0x44
    1a1c:	5f00      	ldrsh	r0, [r0, r4]
    1a1e:	6c5f      	ldr	r7, [r3, #68]	; 0x44
    1a20:	6269      	str	r1, [r5, #36]	; 0x24
    1a22:	5f63      	ldrsh	r3, [r4, r5]
    1a24:	7363      	strb	r3, [r4, #13]
    1a26:	5f75      	ldrsh	r5, [r6, r5]
    1a28:	6e69      	ldr	r1, [r5, #100]	; 0x64
    1a2a:	7469      	strb	r1, [r5, #17]
    1a2c:	5f00      	ldrsh	r0, [r0, r4]
    1a2e:	655f      	str	r7, [r3, #84]	; 0x54
    1a30:	646e      	str	r6, [r5, #68]	; 0x44
    1a32:	5f5f      	ldrsh	r7, [r3, r5]
    1a34:	5f00      	ldrsh	r0, [r0, r4]
    1a36:	625f      	str	r7, [r3, #36]	; 0x24
    1a38:	7373      	strb	r3, [r6, #13]
    1a3a:	735f      	strb	r7, [r3, #13]
    1a3c:	6174      	str	r4, [r6, #20]
    1a3e:	7472      	strb	r2, [r6, #17]
    1a40:	6d00      	ldr	r0, [r0, #80]	; 0x50
    1a42:	6961      	ldr	r1, [r4, #20]
    1a44:	006e      	lsls	r6, r5, #1
    1a46:	5f5f      	ldrsh	r7, [r3, r5]
    1a48:	4d54      	ldr	r5, [pc, #336]	; (0x1b9c)
    1a4a:	5f43      	ldrsh	r3, [r0, r5]
    1a4c:	4e45      	ldr	r6, [pc, #276]	; (0x1b64)
    1a4e:	5f44      	ldrsh	r4, [r0, r5]
    1a50:	005f      	lsls	r7, r3, #1
    1a52:	495f      	ldr	r1, [pc, #380]	; (0x1bd0)
    1a54:	4d54      	ldr	r5, [pc, #336]	; (0x1ba8)
    1a56:	725f      	strb	r7, [r3, #9]
    1a58:	6765      	str	r5, [r4, #116]	; 0x74
    1a5a:	7369      	strb	r1, [r5, #13]
    1a5c:	6574      	str	r4, [r6, #84]	; 0x54
    1a5e:	5472      	strb	r2, [r6, r1]
    1a60:	434d      	muls	r5, r1
    1a62:	6f6c      	ldr	r4, [r5, #116]	; 0x74
    1a64:	656e      	str	r6, [r5, #84]	; 0x54
    1a66:	6154      	str	r4, [r2, #20]
    1a68:	6c62      	ldr	r2, [r4, #68]	; 0x44
    1a6a:	0065      	lsls	r5, r4, #1
    1a6c:	6261      	str	r1, [r4, #36]	; 0x24
    1a6e:	726f      	strb	r7, [r5, #9]
    1a70:	4074      	eors	r4, r6
    1a72:	4c47      	ldr	r4, [pc, #284]	; (0x1b90)
    1a74:	4249      	negs	r1, r1
    1a76:	5f43      	ldrsh	r3, [r0, r5]
    1a78:	2e32      	cmp	r6, #50	; 0x32
    1a7a:	0034      	movs	r4, r6
    1a7c:	2e00      	cmp	r6, #0
    1a7e:	7973      	ldrb	r3, [r6, #5]
    1a80:	746d      	strb	r5, [r5, #17]
    1a82:	6261      	str	r1, [r4, #36]	; 0x24
    1a84:	2e00      	cmp	r6, #0
    1a86:	7473      	strb	r3, [r6, #17]
    1a88:	7472      	strb	r2, [r6, #17]
    1a8a:	6261      	str	r1, [r4, #36]	; 0x24
    1a8c:	2e00      	cmp	r6, #0
    1a8e:	6873      	ldr	r3, [r6, #4]
    1a90:	7473      	strb	r3, [r6, #17]
    1a92:	7472      	strb	r2, [r6, #17]
    1a94:	6261      	str	r1, [r4, #36]	; 0x24
    1a96:	2e00      	cmp	r6, #0
    1a98:	6e69      	ldr	r1, [r5, #100]	; 0x64
    1a9a:	6574      	str	r4, [r6, #84]	; 0x54
    1a9c:	7072      	strb	r2, [r6, #1]
    1a9e:	2e00      	cmp	r6, #0
    1aa0:	6f6e      	ldr	r6, [r5, #116]	; 0x74
    1aa2:	6574      	str	r4, [r6, #84]	; 0x54
    1aa4:	672e      	str	r6, [r5, #112]	; 0x70
    1aa6:	756e      	strb	r6, [r5, #21]
    1aa8:	622e      	str	r6, [r5, #32]
    1aaa:	6975      	ldr	r5, [r6, #20]
    1aac:	646c      	str	r4, [r5, #68]	; 0x44
    1aae:	692d      	ldr	r5, [r5, #16]
    1ab0:	0064      	lsls	r4, r4, #1
    1ab2:	6e2e      	ldr	r6, [r5, #96]	; 0x60
    1ab4:	746f      	strb	r7, [r5, #17]
    1ab6:	2e65      	cmp	r6, #101	; 0x65
    1ab8:	4241      	negs	r1, r0
    1aba:	2d49      	cmp	r5, #73	; 0x49
    1abc:	6174      	str	r4, [r6, #20]
    1abe:	0067      	lsls	r7, r4, #1
    1ac0:	672e      	str	r6, [r5, #112]	; 0x70
    1ac2:	756e      	strb	r6, [r5, #21]
    1ac4:	682e      	ldr	r6, [r5, #0]
    1ac6:	7361      	strb	r1, [r4, #13]
    1ac8:	0068      	lsls	r0, r5, #1
    1aca:	642e      	str	r6, [r5, #64]	; 0x40
    1acc:	6e79      	ldr	r1, [r7, #100]	; 0x64
    1ace:	7973      	ldrb	r3, [r6, #5]
    1ad0:	006d      	lsls	r5, r5, #1
    1ad2:	642e      	str	r6, [r5, #64]	; 0x40
    1ad4:	6e79      	ldr	r1, [r7, #100]	; 0x64
    1ad6:	7473      	strb	r3, [r6, #17]
    1ad8:	0072      	lsls	r2, r6, #1
    1ada:	672e      	str	r6, [r5, #112]	; 0x70
    1adc:	756e      	strb	r6, [r5, #21]
    1ade:	762e      	strb	r6, [r5, #24]
    1ae0:	7265      	strb	r5, [r4, #9]
    1ae2:	6973      	ldr	r3, [r6, #20]
    1ae4:	6e6f      	ldr	r7, [r5, #100]	; 0x64
    1ae6:	2e00      	cmp	r6, #0
    1ae8:	6e67      	ldr	r7, [r4, #100]	; 0x64
    1aea:	2e75      	cmp	r6, #117	; 0x75
    1aec:	6576      	str	r6, [r6, #84]	; 0x54
    1aee:	7372      	strb	r2, [r6, #13]
    1af0:	6f69      	ldr	r1, [r5, #116]	; 0x74
    1af2:	5f6e      	ldrsh	r6, [r5, r5]
    1af4:	0072      	lsls	r2, r6, #1
    1af6:	722e      	strb	r6, [r5, #8]
    1af8:	6c65      	ldr	r5, [r4, #68]	; 0x44
    1afa:	642e      	str	r6, [r5, #64]	; 0x40
    1afc:	6e79      	ldr	r1, [r7, #100]	; 0x64
    1afe:	2e00      	cmp	r6, #0
    1b00:	6572      	str	r2, [r6, #84]	; 0x54
    1b02:	2e6c      	cmp	r6, #108	; 0x6c
    1b04:	6c70      	ldr	r0, [r6, #68]	; 0x44
    1b06:	0074      	lsls	r4, r6, #1
    1b08:	692e      	ldr	r6, [r5, #16]
    1b0a:	696e      	ldr	r6, [r5, #20]
    1b0c:	0074      	lsls	r4, r6, #1
    1b0e:	742e      	strb	r6, [r5, #16]
    1b10:	7865      	ldrb	r5, [r4, #1]
    1b12:	0074      	lsls	r4, r6, #1
    1b14:	662e      	str	r6, [r5, #96]	; 0x60
    1b16:	6e69      	ldr	r1, [r5, #100]	; 0x64
    1b18:	0069      	lsls	r1, r5, #1
    1b1a:	722e      	strb	r6, [r5, #8]
    1b1c:	646f      	str	r7, [r5, #68]	; 0x44
    1b1e:	7461      	strb	r1, [r4, #17]
    1b20:	0061      	lsls	r1, r4, #1
    1b22:	412e      	asrs	r6, r5
    1b24:	4d52      	ldr	r5, [pc, #328]	; (0x1c70)
    1b26:	652e      	str	r6, [r5, #80]	; 0x50
    1b28:	6978      	ldr	r0, [r7, #20]
    1b2a:	7864      	ldrb	r4, [r4, #1]
    1b2c:	2e00      	cmp	r6, #0
    1b2e:	6865      	ldr	r5, [r4, #4]
    1b30:	665f      	str	r7, [r3, #100]	; 0x64
    1b32:	6172      	str	r2, [r6, #20]
    1b34:	656d      	str	r5, [r5, #84]	; 0x54
    1b36:	2e00      	cmp	r6, #0
    1b38:	6e69      	ldr	r1, [r5, #100]	; 0x64
    1b3a:	7469      	strb	r1, [r5, #17]
    1b3c:	615f      	str	r7, [r3, #20]
    1b3e:	7272      	strb	r2, [r6, #9]
    1b40:	7961      	ldrb	r1, [r4, #5]
    1b42:	2e00      	cmp	r6, #0
    1b44:	6966      	ldr	r6, [r4, #20]
    1b46:	696e      	ldr	r6, [r5, #20]
    1b48:	615f      	str	r7, [r3, #20]
    1b4a:	7272      	strb	r2, [r6, #9]
    1b4c:	7961      	ldrb	r1, [r4, #5]
    1b4e:	2e00      	cmp	r6, #0
    1b50:	7964      	ldrb	r4, [r4, #5]
    1b52:	616e      	str	r6, [r5, #20]
    1b54:	696d      	ldr	r5, [r5, #20]
    1b56:	0063      	lsls	r3, r4, #1
    1b58:	672e      	str	r6, [r5, #112]	; 0x70
    1b5a:	746f      	strb	r7, [r5, #17]
    1b5c:	2e00      	cmp	r6, #0
    1b5e:	6164      	str	r4, [r4, #20]
    1b60:	6174      	str	r4, [r6, #20]
    1b62:	2e00      	cmp	r6, #0
    1b64:	7362      	strb	r2, [r4, #13]
    1b66:	0073      	lsls	r3, r6, #1
    1b68:	632e      	str	r6, [r5, #48]	; 0x30
    1b6a:	6d6f      	ldr	r7, [r5, #84]	; 0x54
    1b6c:	656d      	str	r5, [r5, #84]	; 0x54
    1b6e:	746e      	strb	r6, [r5, #17]
    1b70:	2e00      	cmp	r6, #0
    1b72:	5241      	strh	r1, [r0, r1]
    1b74:	2e4d      	cmp	r6, #77	; 0x4d
    1b76:	7461      	strb	r1, [r4, #17]
    1b78:	7274      	strb	r4, [r6, #9]
    1b7a:	6269      	str	r1, [r5, #36]	; 0x24
    1b7c:	7475      	strb	r5, [r6, #17]
    1b7e:	7365      	strb	r5, [r4, #13]
	...
    1bac:	001b      	movs	r3, r3
    1bae:	0000      	movs	r0, r0
    1bb0:	0001      	movs	r1, r0
    1bb2:	0000      	movs	r0, r0
    1bb4:	0002      	movs	r2, r0
    1bb6:	0000      	movs	r0, r0
    1bb8:	0154      	lsls	r4, r2, #5
    1bba:	0000      	movs	r0, r0
    1bbc:	0154      	lsls	r4, r2, #5
    1bbe:	0000      	movs	r0, r0
    1bc0:	0019      	movs	r1, r3
	...
    1bca:	0000      	movs	r0, r0
    1bcc:	0001      	movs	r1, r0
    1bce:	0000      	movs	r0, r0
    1bd0:	0000      	movs	r0, r0
    1bd2:	0000      	movs	r0, r0
    1bd4:	0023      	movs	r3, r4
    1bd6:	0000      	movs	r0, r0
    1bd8:	0007      	movs	r7, r0
    1bda:	0000      	movs	r0, r0
    1bdc:	0002      	movs	r2, r0
    1bde:	0000      	movs	r0, r0
    1be0:	0170      	lsls	r0, r6, #5
    1be2:	0000      	movs	r0, r0
    1be4:	0170      	lsls	r0, r6, #5
    1be6:	0000      	movs	r0, r0
    1be8:	0024      	movs	r4, r4
	...
    1bf2:	0000      	movs	r0, r0
    1bf4:	0004      	movs	r4, r0
    1bf6:	0000      	movs	r0, r0
    1bf8:	0000      	movs	r0, r0
    1bfa:	0000      	movs	r0, r0
    1bfc:	0036      	movs	r6, r6
    1bfe:	0000      	movs	r0, r0
    1c00:	0007      	movs	r7, r0
    1c02:	0000      	movs	r0, r0
    1c04:	0002      	movs	r2, r0
    1c06:	0000      	movs	r0, r0
    1c08:	0194      	lsls	r4, r2, #6
    1c0a:	0000      	movs	r0, r0
    1c0c:	0194      	lsls	r4, r2, #6
    1c0e:	0000      	movs	r0, r0
    1c10:	0020      	movs	r0, r4
	...
    1c1a:	0000      	movs	r0, r0
    1c1c:	0004      	movs	r4, r0
    1c1e:	0000      	movs	r0, r0
    1c20:	0000      	movs	r0, r0
    1c22:	0000      	movs	r0, r0
    1c24:	0044      	lsls	r4, r0, #1
    1c26:	0000      	movs	r0, r0
    1c28:	fff6 6fff 			; <UNDEFINED> instruction: 0xfff66fff
    1c2c:	0002      	movs	r2, r0
    1c2e:	0000      	movs	r0, r0
    1c30:	01b4      	lsls	r4, r6, #6
    1c32:	0000      	movs	r0, r0
    1c34:	01b4      	lsls	r4, r6, #6
    1c36:	0000      	movs	r0, r0
    1c38:	0018      	movs	r0, r3
    1c3a:	0000      	movs	r0, r0
    1c3c:	0005      	movs	r5, r0
    1c3e:	0000      	movs	r0, r0
    1c40:	0000      	movs	r0, r0
    1c42:	0000      	movs	r0, r0
    1c44:	0004      	movs	r4, r0
    1c46:	0000      	movs	r0, r0
    1c48:	0004      	movs	r4, r0
    1c4a:	0000      	movs	r0, r0
    1c4c:	004e      	lsls	r6, r1, #1
    1c4e:	0000      	movs	r0, r0
    1c50:	000b      	movs	r3, r1
    1c52:	0000      	movs	r0, r0
    1c54:	0002      	movs	r2, r0
    1c56:	0000      	movs	r0, r0
    1c58:	01cc      	lsls	r4, r1, #7
    1c5a:	0000      	movs	r0, r0
    1c5c:	01cc      	lsls	r4, r1, #7
    1c5e:	0000      	movs	r0, r0
    1c60:	0090      	lsls	r0, r2, #2
    1c62:	0000      	movs	r0, r0
    1c64:	0006      	movs	r6, r0
    1c66:	0000      	movs	r0, r0
    1c68:	0003      	movs	r3, r0
    1c6a:	0000      	movs	r0, r0
    1c6c:	0004      	movs	r4, r0
    1c6e:	0000      	movs	r0, r0
    1c70:	0010      	movs	r0, r2
    1c72:	0000      	movs	r0, r0
    1c74:	0056      	lsls	r6, r2, #1
    1c76:	0000      	movs	r0, r0
    1c78:	0003      	movs	r3, r0
    1c7a:	0000      	movs	r0, r0
    1c7c:	0002      	movs	r2, r0
    1c7e:	0000      	movs	r0, r0
    1c80:	025c      	lsls	r4, r3, #9
    1c82:	0000      	movs	r0, r0
    1c84:	025c      	lsls	r4, r3, #9
    1c86:	0000      	movs	r0, r0
    1c88:	0081      	lsls	r1, r0, #2
	...
    1c92:	0000      	movs	r0, r0
    1c94:	0001      	movs	r1, r0
    1c96:	0000      	movs	r0, r0
    1c98:	0000      	movs	r0, r0
    1c9a:	0000      	movs	r0, r0
    1c9c:	005e      	lsls	r6, r3, #1
    1c9e:	0000      	movs	r0, r0
    1ca0:	ffff 6fff 			; <UNDEFINED> instruction: 0xffff6fff
    1ca4:	0002      	movs	r2, r0
    1ca6:	0000      	movs	r0, r0
    1ca8:	02de      	lsls	r6, r3, #11
    1caa:	0000      	movs	r0, r0
    1cac:	02de      	lsls	r6, r3, #11
    1cae:	0000      	movs	r0, r0
    1cb0:	0012      	movs	r2, r2
    1cb2:	0000      	movs	r0, r0
    1cb4:	0005      	movs	r5, r0
    1cb6:	0000      	movs	r0, r0
    1cb8:	0000      	movs	r0, r0
    1cba:	0000      	movs	r0, r0
    1cbc:	0002      	movs	r2, r0
    1cbe:	0000      	movs	r0, r0
    1cc0:	0002      	movs	r2, r0
    1cc2:	0000      	movs	r0, r0
    1cc4:	006b      	lsls	r3, r5, #1
    1cc6:	0000      	movs	r0, r0
    1cc8:	fffe 6fff 			; <UNDEFINED> instruction: 0xfffe6fff
    1ccc:	0002      	movs	r2, r0
    1cce:	0000      	movs	r0, r0
    1cd0:	02f0      	lsls	r0, r6, #11
    1cd2:	0000      	movs	r0, r0
    1cd4:	02f0      	lsls	r0, r6, #11
    1cd6:	0000      	movs	r0, r0
    1cd8:	0020      	movs	r0, r4
    1cda:	0000      	movs	r0, r0
    1cdc:	0006      	movs	r6, r0
    1cde:	0000      	movs	r0, r0
    1ce0:	0001      	movs	r1, r0
    1ce2:	0000      	movs	r0, r0
    1ce4:	0004      	movs	r4, r0
    1ce6:	0000      	movs	r0, r0
    1ce8:	0000      	movs	r0, r0
    1cea:	0000      	movs	r0, r0
    1cec:	007a      	lsls	r2, r7, #1
    1cee:	0000      	movs	r0, r0
    1cf0:	0009      	movs	r1, r1
    1cf2:	0000      	movs	r0, r0
    1cf4:	0002      	movs	r2, r0
    1cf6:	0000      	movs	r0, r0
    1cf8:	0310      	lsls	r0, r2, #12
    1cfa:	0000      	movs	r0, r0
    1cfc:	0310      	lsls	r0, r2, #12
    1cfe:	0000      	movs	r0, r0
    1d00:	0050      	lsls	r0, r2, #1
    1d02:	0000      	movs	r0, r0
    1d04:	0005      	movs	r5, r0
    1d06:	0000      	movs	r0, r0
    1d08:	0000      	movs	r0, r0
    1d0a:	0000      	movs	r0, r0
    1d0c:	0004      	movs	r4, r0
    1d0e:	0000      	movs	r0, r0
    1d10:	0008      	movs	r0, r1
    1d12:	0000      	movs	r0, r0
    1d14:	0083      	lsls	r3, r0, #2
    1d16:	0000      	movs	r0, r0
    1d18:	0009      	movs	r1, r1
    1d1a:	0000      	movs	r0, r0
    1d1c:	0042      	lsls	r2, r0, #1
    1d1e:	0000      	movs	r0, r0
    1d20:	0360      	lsls	r0, r4, #13
    1d22:	0000      	movs	r0, r0
    1d24:	0360      	lsls	r0, r4, #13
    1d26:	0000      	movs	r0, r0
    1d28:	0020      	movs	r0, r4
    1d2a:	0000      	movs	r0, r0
    1d2c:	0005      	movs	r5, r0
    1d2e:	0000      	movs	r0, r0
    1d30:	0015      	movs	r5, r2
    1d32:	0000      	movs	r0, r0
    1d34:	0004      	movs	r4, r0
    1d36:	0000      	movs	r0, r0
    1d38:	0008      	movs	r0, r1
    1d3a:	0000      	movs	r0, r0
    1d3c:	008c      	lsls	r4, r1, #2
    1d3e:	0000      	movs	r0, r0
    1d40:	0001      	movs	r1, r0
    1d42:	0000      	movs	r0, r0
    1d44:	0006      	movs	r6, r0
    1d46:	0000      	movs	r0, r0
    1d48:	0380      	lsls	r0, r0, #14
    1d4a:	0000      	movs	r0, r0
    1d4c:	0380      	lsls	r0, r0, #14
    1d4e:	0000      	movs	r0, r0
    1d50:	000c      	movs	r4, r1
	...
    1d5a:	0000      	movs	r0, r0
    1d5c:	0004      	movs	r4, r0
    1d5e:	0000      	movs	r0, r0
    1d60:	0000      	movs	r0, r0
    1d62:	0000      	movs	r0, r0
    1d64:	0087      	lsls	r7, r0, #2
    1d66:	0000      	movs	r0, r0
    1d68:	0001      	movs	r1, r0
    1d6a:	0000      	movs	r0, r0
    1d6c:	0006      	movs	r6, r0
    1d6e:	0000      	movs	r0, r0
    1d70:	038c      	lsls	r4, r1, #14
    1d72:	0000      	movs	r0, r0
    1d74:	038c      	lsls	r4, r1, #14
    1d76:	0000      	movs	r0, r0
    1d78:	0044      	lsls	r4, r0, #1
	...
    1d82:	0000      	movs	r0, r0
    1d84:	0004      	movs	r4, r0
    1d86:	0000      	movs	r0, r0
    1d88:	0004      	movs	r4, r0
    1d8a:	0000      	movs	r0, r0
    1d8c:	0092      	lsls	r2, r2, #2
    1d8e:	0000      	movs	r0, r0
    1d90:	0001      	movs	r1, r0
    1d92:	0000      	movs	r0, r0
    1d94:	0006      	movs	r6, r0
    1d96:	0000      	movs	r0, r0
    1d98:	03d0      	lsls	r0, r2, #15
    1d9a:	0000      	movs	r0, r0
    1d9c:	03d0      	lsls	r0, r2, #15
    1d9e:	0000      	movs	r0, r0
    1da0:	0188      	lsls	r0, r1, #6
	...
    1daa:	0000      	movs	r0, r0
    1dac:	0004      	movs	r4, r0
    1dae:	0000      	movs	r0, r0
    1db0:	0000      	movs	r0, r0
    1db2:	0000      	movs	r0, r0
    1db4:	0098      	lsls	r0, r3, #2
    1db6:	0000      	movs	r0, r0
    1db8:	0001      	movs	r1, r0
    1dba:	0000      	movs	r0, r0
    1dbc:	0006      	movs	r6, r0
    1dbe:	0000      	movs	r0, r0
    1dc0:	0558      	lsls	r0, r3, #21
    1dc2:	0000      	movs	r0, r0
    1dc4:	0558      	lsls	r0, r3, #21
    1dc6:	0000      	movs	r0, r0
    1dc8:	0008      	movs	r0, r1
	...
    1dd2:	0000      	movs	r0, r0
    1dd4:	0004      	movs	r4, r0
    1dd6:	0000      	movs	r0, r0
    1dd8:	0000      	movs	r0, r0
    1dda:	0000      	movs	r0, r0
    1ddc:	009e      	lsls	r6, r3, #2
    1dde:	0000      	movs	r0, r0
    1de0:	0001      	movs	r1, r0
    1de2:	0000      	movs	r0, r0
    1de4:	0002      	movs	r2, r0
    1de6:	0000      	movs	r0, r0
    1de8:	0560      	lsls	r0, r4, #21
    1dea:	0000      	movs	r0, r0
    1dec:	0560      	lsls	r0, r4, #21
    1dee:	0000      	movs	r0, r0
    1df0:	0124      	lsls	r4, r4, #4
	...
    1dfa:	0000      	movs	r0, r0
    1dfc:	0004      	movs	r4, r0
    1dfe:	0000      	movs	r0, r0
    1e00:	0000      	movs	r0, r0
    1e02:	0000      	movs	r0, r0
    1e04:	00a6      	lsls	r6, r4, #2
    1e06:	0000      	movs	r0, r0
    1e08:	0001      	movs	r1, r0
    1e0a:	7000      	strb	r0, [r0, #0]
    1e0c:	0082      	lsls	r2, r0, #2
    1e0e:	0000      	movs	r0, r0
    1e10:	0684      	lsls	r4, r0, #26
    1e12:	0000      	movs	r0, r0
    1e14:	0684      	lsls	r4, r0, #26
    1e16:	0000      	movs	r0, r0
    1e18:	0008      	movs	r0, r1
    1e1a:	0000      	movs	r0, r0
    1e1c:	000d      	movs	r5, r1
    1e1e:	0000      	movs	r0, r0
    1e20:	0000      	movs	r0, r0
    1e22:	0000      	movs	r0, r0
    1e24:	0004      	movs	r4, r0
    1e26:	0000      	movs	r0, r0
    1e28:	0000      	movs	r0, r0
    1e2a:	0000      	movs	r0, r0
    1e2c:	00b1      	lsls	r1, r6, #2
    1e2e:	0000      	movs	r0, r0
    1e30:	0001      	movs	r1, r0
    1e32:	0000      	movs	r0, r0
    1e34:	0002      	movs	r2, r0
    1e36:	0000      	movs	r0, r0
    1e38:	068c      	lsls	r4, r1, #26
    1e3a:	0000      	movs	r0, r0
    1e3c:	068c      	lsls	r4, r1, #26
    1e3e:	0000      	movs	r0, r0
    1e40:	0004      	movs	r4, r0
	...
    1e4a:	0000      	movs	r0, r0
    1e4c:	0004      	movs	r4, r0
    1e4e:	0000      	movs	r0, r0
    1e50:	0000      	movs	r0, r0
    1e52:	0000      	movs	r0, r0
    1e54:	00bb      	lsls	r3, r7, #2
    1e56:	0000      	movs	r0, r0
    1e58:	000e      	movs	r6, r1
    1e5a:	0000      	movs	r0, r0
    1e5c:	0003      	movs	r3, r0
    1e5e:	0000      	movs	r0, r0
    1e60:	0f08      	lsrs	r0, r1, #28
    1e62:	0001      	movs	r1, r0
    1e64:	0f08      	lsrs	r0, r1, #28
    1e66:	0000      	movs	r0, r0
    1e68:	0004      	movs	r4, r0
	...
    1e72:	0000      	movs	r0, r0
    1e74:	0004      	movs	r4, r0
    1e76:	0000      	movs	r0, r0
    1e78:	0004      	movs	r4, r0
    1e7a:	0000      	movs	r0, r0
    1e7c:	00c7      	lsls	r7, r0, #3
    1e7e:	0000      	movs	r0, r0
    1e80:	000f      	movs	r7, r1
    1e82:	0000      	movs	r0, r0
    1e84:	0003      	movs	r3, r0
    1e86:	0000      	movs	r0, r0
    1e88:	0f0c      	lsrs	r4, r1, #28
    1e8a:	0001      	movs	r1, r0
    1e8c:	0f0c      	lsrs	r4, r1, #28
    1e8e:	0000      	movs	r0, r0
    1e90:	0004      	movs	r4, r0
	...
    1e9a:	0000      	movs	r0, r0
    1e9c:	0004      	movs	r4, r0
    1e9e:	0000      	movs	r0, r0
    1ea0:	0004      	movs	r4, r0
    1ea2:	0000      	movs	r0, r0
    1ea4:	00d3      	lsls	r3, r2, #3
    1ea6:	0000      	movs	r0, r0
    1ea8:	0006      	movs	r6, r0
    1eaa:	0000      	movs	r0, r0
    1eac:	0003      	movs	r3, r0
    1eae:	0000      	movs	r0, r0
    1eb0:	0f10      	lsrs	r0, r2, #28
    1eb2:	0001      	movs	r1, r0
    1eb4:	0f10      	lsrs	r0, r2, #28
    1eb6:	0000      	movs	r0, r0
    1eb8:	00f0      	lsls	r0, r6, #3
    1eba:	0000      	movs	r0, r0
    1ebc:	0006      	movs	r6, r0
    1ebe:	0000      	movs	r0, r0
    1ec0:	0000      	movs	r0, r0
    1ec2:	0000      	movs	r0, r0
    1ec4:	0004      	movs	r4, r0
    1ec6:	0000      	movs	r0, r0
    1ec8:	0008      	movs	r0, r1
    1eca:	0000      	movs	r0, r0
    1ecc:	00dc      	lsls	r4, r3, #3
    1ece:	0000      	movs	r0, r0
    1ed0:	0001      	movs	r1, r0
    1ed2:	0000      	movs	r0, r0
    1ed4:	0003      	movs	r3, r0
    1ed6:	0000      	movs	r0, r0
    1ed8:	1000      	asrs	r0, r0, #32
    1eda:	0001      	movs	r1, r0
    1edc:	1000      	asrs	r0, r0, #32
    1ede:	0000      	movs	r0, r0
    1ee0:	0038      	movs	r0, r7
	...
    1eea:	0000      	movs	r0, r0
    1eec:	0004      	movs	r4, r0
    1eee:	0000      	movs	r0, r0
    1ef0:	0004      	movs	r4, r0
    1ef2:	0000      	movs	r0, r0
    1ef4:	00e1      	lsls	r1, r4, #3
    1ef6:	0000      	movs	r0, r0
    1ef8:	0001      	movs	r1, r0
    1efa:	0000      	movs	r0, r0
    1efc:	0003      	movs	r3, r0
    1efe:	0000      	movs	r0, r0
    1f00:	1038      	asrs	r0, r7, #32
    1f02:	0001      	movs	r1, r0
    1f04:	1038      	asrs	r0, r7, #32
    1f06:	0000      	movs	r0, r0
    1f08:	0008      	movs	r0, r1
	...
    1f12:	0000      	movs	r0, r0
    1f14:	0004      	movs	r4, r0
    1f16:	0000      	movs	r0, r0
    1f18:	0000      	movs	r0, r0
    1f1a:	0000      	movs	r0, r0
    1f1c:	00e7      	lsls	r7, r4, #3
    1f1e:	0000      	movs	r0, r0
    1f20:	0008      	movs	r0, r1
    1f22:	0000      	movs	r0, r0
    1f24:	0003      	movs	r3, r0
    1f26:	0000      	movs	r0, r0
    1f28:	1040      	asrs	r0, r0, #1
    1f2a:	0001      	movs	r1, r0
    1f2c:	1040      	asrs	r0, r0, #1
    1f2e:	0000      	movs	r0, r0
    1f30:	0004      	movs	r4, r0
	...
    1f3a:	0000      	movs	r0, r0
    1f3c:	0001      	movs	r1, r0
    1f3e:	0000      	movs	r0, r0
    1f40:	0000      	movs	r0, r0
    1f42:	0000      	movs	r0, r0
    1f44:	00ec      	lsls	r4, r5, #3
    1f46:	0000      	movs	r0, r0
    1f48:	0001      	movs	r1, r0
    1f4a:	0000      	movs	r0, r0
    1f4c:	0030      	movs	r0, r6
    1f4e:	0000      	movs	r0, r0
    1f50:	0000      	movs	r0, r0
    1f52:	0000      	movs	r0, r0
    1f54:	1040      	asrs	r0, r0, #1
    1f56:	0000      	movs	r0, r0
    1f58:	0027      	movs	r7, r4
	...
    1f62:	0000      	movs	r0, r0
    1f64:	0001      	movs	r1, r0
    1f66:	0000      	movs	r0, r0
    1f68:	0001      	movs	r1, r0
    1f6a:	0000      	movs	r0, r0
    1f6c:	00f5      	lsls	r5, r6, #3
    1f6e:	0000      	movs	r0, r0
    1f70:	0003      	movs	r3, r0
    1f72:	7000      	strb	r0, [r0, #0]
	...
    1f7c:	1067      	asrs	r7, r4, #1
    1f7e:	0000      	movs	r0, r0
    1f80:	0033      	movs	r3, r6
	...
    1f8a:	0000      	movs	r0, r0
    1f8c:	0001      	movs	r1, r0
    1f8e:	0000      	movs	r0, r0
    1f90:	0000      	movs	r0, r0
    1f92:	0000      	movs	r0, r0
    1f94:	0001      	movs	r1, r0
    1f96:	0000      	movs	r0, r0
    1f98:	0002      	movs	r2, r0
	...
    1fa2:	0000      	movs	r0, r0
    1fa4:	109c      	asrs	r4, r3, #2
    1fa6:	0000      	movs	r0, r0
    1fa8:	06a0      	lsls	r0, r4, #26
    1faa:	0000      	movs	r0, r0
    1fac:	001b      	movs	r3, r3
    1fae:	0000      	movs	r0, r0
    1fb0:	0053      	lsls	r3, r2, #1
    1fb2:	0000      	movs	r0, r0
    1fb4:	0004      	movs	r4, r0
    1fb6:	0000      	movs	r0, r0
    1fb8:	0010      	movs	r0, r2
    1fba:	0000      	movs	r0, r0
    1fbc:	0009      	movs	r1, r1
    1fbe:	0000      	movs	r0, r0
    1fc0:	0003      	movs	r3, r0
	...
    1fca:	0000      	movs	r0, r0
    1fcc:	173c      	asrs	r4, r7, #28
    1fce:	0000      	movs	r0, r0
    1fd0:	0340      	lsls	r0, r0, #13
	...
    1fda:	0000      	movs	r0, r0
    1fdc:	0001      	movs	r1, r0
    1fde:	0000      	movs	r0, r0
    1fe0:	0000      	movs	r0, r0
    1fe2:	0000      	movs	r0, r0
    1fe4:	0011      	movs	r1, r2
    1fe6:	0000      	movs	r0, r0
    1fe8:	0003      	movs	r3, r0
	...
    1ff2:	0000      	movs	r0, r0
    1ff4:	1a7c      	subs	r4, r7, r1
    1ff6:	0000      	movs	r0, r0
    1ff8:	0105      	lsls	r5, r0, #4
	...
    2002:	0000      	movs	r0, r0
    2004:	0001      	movs	r1, r0
    2006:	0000      	movs	r0, r0
    2008:	0000      	movs	r0, r0
	...
